(dp0
S'Constantine Deliyannis'
p1
(dp2
S'num_papers_before_award'
p3
I7
sS'num_cites_during_award'
p4
I89
sS'phd_institute'
p5
S'Yale University'
p6
sS'num_papers_during_award'
p7
I4
sS'host_institute'
p8
S'Yale University'
p9
sS'num_cites_after_award'
p10
I511
sS'gender'
p11
S'm'
p12
sS'num_coauthors'
p13
I34
sS'num_cites_before_award'
p14
I127
sS'award_type'
p15
S'Hubble'
p16
sS'year_of_fellowship'
p17
cnumpy.core.multiarray
scalar
p18
(cnumpy
dtype
p19
(S'i8'
p20
I0
I1
tp21
Rp22
(I3
S'<'
p23
NNNI-1
I-1
I0
tp24
bS'\xc9\x07\x00\x00\x00\x00\x00\x00'
p25
tp26
Rp27
sS'num_papers_after_award'
p28
I5
sS'num_papers'
p29
I17
sS'num_of_self_cites'
p30
I0
sS'num_references'
p31
I654
ssS'Matthew Bershady'
p32
(dp33
g3
I1
sg4
I3
sg5
S'University of California Santa Cruz'
p34
sg7
I3
sg8
S'University of Chicago'
p35
sg10
I724
sg11
g12
sg13
I43
sg14
I1
sg15
g16
sg17
g18
(g22
S'\xc8\x07\x00\x00\x00\x00\x00\x00'
p36
tp37
Rp38
sg28
I13
sg29
I20
sg30
I0
sg31
I754
ssS'Matthew Kerr'
p39
(dp40
g3
I0
sg4
I23
sg5
S'Stanford University'
p41
sg7
I2
sg8
Fnan
sg10
I57
sg11
g12
sg13
I29
sg14
I0
sg15
S'Einstein'
p42
sg17
g18
(g22
S'\xda\x07\x00\x00\x00\x00\x00\x00'
p43
tp44
Rp45
sg28
I5
sg29
I8
sg30
I0
sg31
I307
ssS'Steven Rodney'
p46
(dp47
g3
I5
sg4
I38
sg5
S'The Johns Hopkins University'
p48
sg7
I1
sg8
S'University of Hawaii - 2010'
p49
sg10
I10
sg11
g12
sg13
I117
sg14
I18
sg15
g16
sg17
g18
(g22
S'\xdc\x07\x00\x00\x00\x00\x00\x00'
p50
tp51
Rp52
sg28
I1
sg29
I10
sg30
I0
sg31
I671
ssS'Ronald O. Marzke'
p53
(dp54
g3
I5
sg4
I210
sg5
S'Observatories of the Carnegie Institute of Washington'
p55
sg7
I1
sg8
S'Harvard University - 1994'
p56
sg10
I419
sg11
g12
sg13
I15
sg14
I104
sg15
g16
sg17
g18
(g22
S'\xcd\x07\x00\x00\x00\x00\x00\x00'
p57
tp58
Rp59
sg28
I0
sg29
I7
sg30
I0
sg31
I387
ssS'Ann Zabludoff'
p60
(dp61
g3
I9
sg4
I145
sg5
g34
sg7
I2
sg8
S'Harvard University - 1993'
p62
sg10
I972
sg11
S'f'
p63
sg13
I32
sg14
I141
sg15
g16
sg17
g18
(g22
S'\xcc\x07\x00\x00\x00\x00\x00\x00'
p64
tp65
Rp66
sg28
I1
sg29
I14
sg30
I0
sg31
I508
ssS'Meng Su'
p67
(dp68
g3
I4
sg4
I193
sg5
S'Massachusetts Institute of Technology'
p69
sg7
I0
sg8
Fnan
sg10
I22
sg11
g12
sg13
I8
sg14
I39
sg15
g42
sg17
g18
(g22
S'\xdc\x07\x00\x00\x00\x00\x00\x00'
p70
tp71
Rp72
sg28
I0
sg29
I6
sg30
I0
sg31
I299
ssS'Francois Foucart'
p73
(dp74
g3
I8
sg4
I127
sg5
S'Lawrence Berkeley National Laboratory'
p75
sg7
I2
sg8
Fnan
sg10
I0
sg11
g12
sg13
I53
sg14
I143
sg15
g42
sg17
g18
(g22
S'\xde\x07\x00\x00\x00\x00\x00\x00'
p76
tp77
Rp78
sg28
I0
sg29
I12
sg30
I0
sg31
I625
ssS'Inger Jorgensen'
p79
(dp80
g3
I4
sg4
I114
sg5
S'University of Texas'
p81
sg7
I2
sg8
S'Copenhagen - 1993'
p82
sg10
I1499
sg11
g63
sg13
I38
sg14
I24
sg15
g16
sg17
g18
(g22
S'\xcb\x07\x00\x00\x00\x00\x00\x00'
p83
tp84
Rp85
sg28
I8
sg29
I18
sg30
I0
sg31
I812
ssS'Jonathan Trump'
p86
(dp87
g3
I9
sg4
I187
sg5
S'The Pennsylvania State University'
p88
sg7
I2
sg8
S'University of Arizona - 2010'
p89
sg10
I0
sg11
g12
sg13
I183
sg14
I342
sg15
g16
sg17
g18
(g22
S'\xdd\x07\x00\x00\x00\x00\x00\x00'
p90
tp91
Rp92
sg28
I0
sg29
I13
sg30
I0
sg31
I907
ssS'Wen-fai Fong'
p93
(dp94
g3
I5
sg4
I127
sg5
S'University of Arizona'
p95
sg7
I2
sg8
Fnan
sg10
I0
sg11
g63
sg13
I64
sg14
I137
sg15
g42
sg17
g18
(g22
S'\xde\x07\x00\x00\x00\x00\x00\x00'
p96
tp97
Rp98
sg28
I0
sg29
I9
sg30
I0
sg31
I872
ssS'Ji-hoon Kim'
p99
(dp100
g3
I209
sg4
I748
sg5
S'SLAC National Accelerator Laboratory'
p101
sg7
I18
sg8
Fnan
sg10
I0
sg11
g12
sg13
I634
sg14
I3945
sg15
g42
sg17
g18
(g22
S'\xde\x07\x00\x00\x00\x00\x00\x00'
p102
tp103
Rp104
sg28
I0
sg29
I244
sg30
I0
sg31
I7727
ssS'Young-Wook Lee'
p105
(dp106
g3
I14
sg4
I165
sg5
g6
sg7
I6
sg8
g9
sg10
I2637
sg11
g12
sg13
I317
sg14
I16
sg15
g16
sg17
g18
(g22
S'\xc6\x07\x00\x00\x00\x00\x00\x00'
p107
tp108
Rp109
sg28
I71
sg29
I96
sg30
I0
sg31
I2397
ssS'Mario Juric'
p110
(dp111
g3
I4
sg4
I214
sg5
S'Harvard University'
p112
sg7
I0
sg8
S'Princeton University - 2007'
p113
sg10
I344
sg11
g12
sg13
I41
sg14
I116
sg15
g16
sg17
g18
(g22
S'\xd9\x07\x00\x00\x00\x00\x00\x00'
p114
tp115
Rp116
sg28
I0
sg29
I4
sg30
I0
sg31
I196
ssS'Marcio Catelan'
p117
(dp118
g3
I14
sg4
I67
sg5
S'Goddard Space Flight Center (yr 1) University of Virginia (yrs 2-3)'
p119
sg7
I1
sg8
S'Smithsonian Astrophysical Observatory Paulo 1996'
p120
sg10
I815
sg11
g12
sg13
I40
sg14
I87
sg15
g16
sg17
g18
(g22
S'\xce\x07\x00\x00\x00\x00\x00\x00'
p121
tp122
Rp123
sg28
I9
sg29
I28
sg30
I0
sg31
I2086
ssS'Andrew Skemer'
p124
(dp125
g3
I8
sg4
I57
sg5
g95
sg7
I1
sg8
S'University of Arizona - 2011'
p126
sg10
I0
sg11
g12
sg13
I136
sg14
I99
sg15
g16
sg17
g18
(g22
S'\xde\x07\x00\x00\x00\x00\x00\x00'
p127
tp128
Rp129
sg28
I0
sg29
I10
sg30
I0
sg31
I493
ssS'Bryce Croll'
p130
(dp131
g3
I6
sg4
I119
sg5
Fnan
sg7
I1
sg8
S'Massachusetts Institute of Technology'
p132
sg10
I72
sg11
g12
sg13
I81
sg14
I76
sg15
S'Sagan'
p133
sg17
g18
(g22
S'\xdb\x07\x00\x00\x00\x00\x00\x00'
p134
tp135
Rp136
sg28
I2
sg29
I13
sg30
I0
sg31
I472
ssS'Brendan Bowler'
p137
(dp138
g3
I15
sg4
I0
sg5
Fnan
sg7
I0
sg8
S'UT Austin'
p139
sg10
I0
sg11
g12
sg13
I75
sg14
I423
sg15
g16
sg17
g18
(g22
S'\xe0\x07\x00\x00\x00\x00\x00\x00'
p140
tp141
Rp142
sg28
I0
sg29
I15
sg30
I0
sg31
I1811
ssS'Eric Agol'
p143
(dp144
g3
I6
sg4
I114
sg5
S'Caltech'
p145
sg7
I5
sg8
Fnan
sg10
I1193
sg11
g12
sg13
I41
sg14
I32
sg15
g42
sg17
g18
(g22
S'\xd0\x07\x00\x00\x00\x00\x00\x00'
p146
tp147
Rp148
sg28
I10
sg29
I25
sg30
I0
sg31
I932
ssS'Marco Spaans'
p149
(dp150
g3
I6
sg4
I89
sg5
S'Center for Astrophysics'
p151
sg7
I2
sg8
S'Leiden 1995'
p152
sg10
I578
sg11
g12
sg13
I26
sg14
I21
sg15
g16
sg17
g18
(g22
S'\xcd\x07\x00\x00\x00\x00\x00\x00'
p153
tp154
Rp155
sg28
I9
sg29
I24
sg30
I0
sg31
I693
ssS'David Sand'
p156
(dp157
g3
I2
sg4
I77
sg5
g95
sg7
I1
sg8
Fnan
sg10
I481
sg11
g12
sg13
I87
sg14
I81
sg15
g42
sg17
g18
(g22
S'\xd5\x07\x00\x00\x00\x00\x00\x00'
p158
tp159
Rp160
sg28
I8
sg29
I14
sg30
I0
sg31
I890
ssS'Tamara Bogdanovic'
p161
(dp162
g3
I5
sg4
I135
sg5
S'University of Maryland'
p163
sg7
I2
sg8
Fnan
sg10
I166
sg11
g63
sg13
I27
sg14
I61
sg15
g42
sg17
g18
(g22
S'\xd9\x07\x00\x00\x00\x00\x00\x00'
p164
tp165
Rp166
sg28
I2
sg29
I12
sg30
I0
sg31
I782
ssS'Gaspar Bakos'
p167
(dp168
g3
I40
sg4
I75
sg5
S'Smithsonian Astrophysical Observatory'
p169
sg7
I2
sg8
S'Eotvos University - 2004'
p170
sg10
I1171
sg11
g12
sg13
I290
sg14
I143
sg15
g16
sg17
g18
(g22
S'\xd4\x07\x00\x00\x00\x00\x00\x00'
p171
tp172
Rp173
sg28
I9
sg29
I55
sg30
I0
sg31
I911
ssS'John Hibbard'
p174
(dp175
g3
I0
sg4
I37
sg5
S'University of Hawaii'
p176
sg7
I3
sg8
S'Columbia University'
p177
sg10
I1069
sg11
g12
sg13
I44
sg14
I0
sg15
g16
sg17
g18
(g22
S'\xca\x07\x00\x00\x00\x00\x00\x00'
p178
tp179
Rp180
sg28
I7
sg29
I12
sg30
I0
sg31
I883
ssS'Jeyhan Kartaltepe'
p181
(dp182
g3
I6
sg4
I119
sg5
S'National Optical Astronomy Observatory _ Tucson'
p183
sg7
I1
sg8
S'University of Hawaii 2009'
p184
sg10
I84
sg11
g63
sg13
I175
sg14
I91
sg15
g16
sg17
g18
(g22
S'\xdb\x07\x00\x00\x00\x00\x00\x00'
p185
tp186
Rp187
sg28
I2
sg29
I9
sg30
I0
sg31
I505
ssS'Eric Richards'
p188
(dp189
g3
I3
sg4
I142
sg5
S'Arizona State University'
p190
sg7
I3
sg8
S'University of Virginia - 1999'
p191
sg10
I324
sg11
g12
sg13
I28
sg14
I19
sg15
g16
sg17
g18
(g22
S'\xcf\x07\x00\x00\x00\x00\x00\x00'
p192
tp193
Rp194
sg28
I2
sg29
I11
sg30
I0
sg31
I245
ssS'Matteo Brogi'
p195
(dp196
g3
I0
sg4
I0
sg5
S'University of Colorado'
p197
sg7
I0
sg8
S'Leiden University - 2014'
p198
sg10
I0
sg11
g12
sg13
I0
sg14
I0
sg15
g16
sg17
g18
(g22
S'\xde\x07\x00\x00\x00\x00\x00\x00'
p199
tp200
Rp201
sg28
I0
sg29
I0
sg30
I0
sg31
I0
ssS'Sean Johnson'
p202
(dp203
g3
I158
sg4
I0
sg5
Fnan
sg7
I0
sg8
S'Princeton'
p204
sg10
I0
sg11
g12
sg13
I56
sg14
I202
sg15
g16
sg17
g18
(g22
S'\xe0\x07\x00\x00\x00\x00\x00\x00'
p205
tp206
Rp207
sg28
I0
sg29
I158
sg30
I0
sg31
I885
ssS'Tiziana Di Matteo'
p208
(dp209
g3
I5
sg4
I147
sg5
g112
sg7
I7
sg8
Fnan
sg10
I3038
sg11
g63
sg13
I62
sg14
I5
sg15
g42
sg17
g18
(g22
S'\xce\x07\x00\x00\x00\x00\x00\x00'
p210
tp211
Rp212
sg28
I9
sg29
I25
sg30
I0
sg31
I1009
ssS'Catherine Espaillat'
p213
(dp214
g3
I9
sg4
I221
sg5
Fnan
sg7
I2
sg8
S'Harvard-Smithsonian Center for Astrophysics'
p215
sg10
I36
sg11
g63
sg13
I87
sg14
I250
sg15
g133
sg17
g18
(g22
S'\xdc\x07\x00\x00\x00\x00\x00\x00'
p216
tp217
Rp218
sg28
I0
sg29
I13
sg30
I0
sg31
I1029
ssS'Didier Saumon'
p219
(dp220
g3
I6
sg4
I73
sg5
S'University of Arizona Lunar and Planetary Laboratory'
p221
sg7
I2
sg8
S'University of Rochester'
p222
sg10
I2040
sg11
g12
sg13
I54
sg14
I31
sg15
g16
sg17
g18
(g22
S'\xc9\x07\x00\x00\x00\x00\x00\x00'
p223
tp224
Rp225
sg28
I11
sg29
I20
sg30
I0
sg31
I826
ssS'Markus Janson'
p226
(dp227
g3
I10
sg4
I140
sg5
S'Princeton University'
p228
sg7
I8
sg8
S'MPI-DE 2008'
p229
sg10
I157
sg11
g12
sg13
I268
sg14
I72
sg15
g16
sg17
g18
(g22
S'\xdb\x07\x00\x00\x00\x00\x00\x00'
p230
tp231
Rp232
sg28
I2
sg29
I24
sg30
I0
sg31
I1142
ssS'Michael McDonald'
p233
(dp234
g3
I12
sg4
I154
sg5
g69
sg7
I5
sg8
S'University of Maryland - 2011'
p235
sg10
I48
sg11
g12
sg13
I318
sg14
I50
sg15
g16
sg17
g18
(g22
S'\xdc\x07\x00\x00\x00\x00\x00\x00'
p236
tp237
Rp238
sg28
I1
sg29
I23
sg30
I0
sg31
I1251
ssS'Sylvain Veilleux'
p239
(dp240
g3
I10
sg4
I114
sg5
S'Kitt Peak National Observatory'
p241
sg7
I3
sg8
S'University of California Santa Cruz'
p242
sg10
I4604
sg11
g12
sg13
I154
sg14
I116
sg15
g16
sg17
g18
(g22
S'\xc8\x07\x00\x00\x00\x00\x00\x00'
p243
tp244
Rp245
sg28
I30
sg29
I45
sg30
I0
sg31
I3598
ssS'Adam Miller'
p246
(dp247
g3
I55
sg4
I103
sg5
S'Jet Propulsion Laboratory'
p248
sg7
I3
sg8
S'University of California Berkeley - 2013'
p249
sg10
I0
sg11
g12
sg13
I180
sg14
I700
sg15
g16
sg17
g18
(g22
S'\xdd\x07\x00\x00\x00\x00\x00\x00'
p250
tp251
Rp252
sg28
I0
sg29
I60
sg30
I0
sg31
I949
ssS'Michelle Collins'
p253
(dp254
g3
I24
sg4
I75
sg5
g6
sg7
I1
sg8
S'Institute of Astronomy Cambridge - 2011'
p255
sg10
I0
sg11
g63
sg13
I114
sg14
I302
sg15
g16
sg17
g18
(g22
S'\xde\x07\x00\x00\x00\x00\x00\x00'
p256
tp257
Rp258
sg28
I0
sg29
I26
sg30
I0
sg31
I736
ssS'Lori M. Lubin'
p259
(dp260
g3
I11
sg4
I71
sg5
S'California Institute of Technology'
p261
sg7
I2
sg8
S'Princeton University - 1995'
p262
sg10
I436
sg11
g12
sg13
I58
sg14
I82
sg15
g16
sg17
g18
(g22
S'\xcd\x07\x00\x00\x00\x00\x00\x00'
p263
tp264
Rp265
sg28
I6
sg29
I21
sg30
I0
sg31
I1030
ssS'Katherine Alatalo'
p266
(dp267
g3
I6
sg4
I37
sg5
S'Carnegie Observatories/Pasadena'
p268
sg7
I0
sg8
S'University of California Berkeley - 2012'
p269
sg10
I0
sg11
g63
sg13
I145
sg14
I92
sg15
g16
sg17
g18
(g22
S'\xdf\x07\x00\x00\x00\x00\x00\x00'
p270
tp271
Rp272
sg28
I0
sg29
I10
sg30
I0
sg31
I731
ssS'Judd D Bowman'
p273
(dp274
g3
I13
sg4
I105
sg5
g261
sg7
I3
sg8
S'Massachusetts Institute of Technology - 2007'
p275
sg10
I428
sg11
g12
sg13
I126
sg14
I189
sg15
g16
sg17
g18
(g22
S'\xd7\x07\x00\x00\x00\x00\x00\x00'
p276
tp277
Rp278
sg28
I2
sg29
I22
sg30
I0
sg31
I707
ssS'Laura Danly'
p279
(dp280
g3
I3
sg4
I27
sg5
S'Space Telescope Science Institute'
p281
sg7
I2
sg8
S'University of Wisconsin'
p282
sg10
I207
sg11
g63
sg13
I6
sg14
I1
sg15
g16
sg17
g18
(g22
S'\xc6\x07\x00\x00\x00\x00\x00\x00'
p283
tp284
Rp285
sg28
I0
sg29
I6
sg30
I0
sg31
I201
ssS'Sarah Ballard'
p286
(dp287
g3
I9
sg4
I86
sg5
Fnan
sg7
I2
sg8
S'University of Washington'
p288
sg10
I15
sg11
g63
sg13
I115
sg14
I105
sg15
g133
sg17
g18
(g22
S'\xdc\x07\x00\x00\x00\x00\x00\x00'
p289
tp290
Rp291
sg28
I1
sg29
I13
sg30
I0
sg31
I555
ssS'Huan Lin'
p292
(dp293
g3
I17
sg4
I207
sg5
g95
sg7
I5
sg8
S'Harvard University - 1995'
p294
sg10
I1195
sg11
Fnan
sg13
I181
sg14
I99
sg15
g16
sg17
g18
(g22
S'\xce\x07\x00\x00\x00\x00\x00\x00'
p295
tp296
Rp297
sg28
I43
sg29
I69
sg30
I0
sg31
I1561
ssS'Licia Verde'
p298
(dp299
g3
I6
sg4
I373
sg5
g228
sg7
I3
sg8
Fnan
sg10
I1244
sg11
g63
sg13
I85
sg14
I45
sg15
g42
sg17
g18
(g22
S'\xd2\x07\x00\x00\x00\x00\x00\x00'
p300
tp301
Rp302
sg28
I11
sg29
I24
sg30
I0
sg31
I1083
ssS'Andreas Kuepper'
p303
(dp304
g3
I9
sg4
I132
sg5
S'Columbia University'
p305
sg7
I1
sg8
S'University of Bonn - 2011'
p306
sg10
I0
sg11
g12
sg13
I26
sg14
I124
sg15
g16
sg17
g18
(g22
S'\xdd\x07\x00\x00\x00\x00\x00\x00'
p307
tp308
Rp309
sg28
I0
sg29
I10
sg30
I0
sg31
I538
ssS'Jesper Rasmussen'
p310
(dp311
g3
I12
sg4
I76
sg5
S'Carnegie Observatories'
p312
sg7
I3
sg8
Fnan
sg10
I296
sg11
g12
sg13
I51
sg14
I80
sg15
g42
sg17
g18
(g22
S'\xd7\x07\x00\x00\x00\x00\x00\x00'
p313
tp314
Rp315
sg28
I3
sg29
I21
sg30
I0
sg31
I1010
ssS'Jan-Uwe Ness'
p316
(dp317
g3
I14
sg4
I130
sg5
g190
sg7
I3
sg8
Fnan
sg10
I462
sg11
g12
sg13
I180
sg14
I121
sg15
g42
sg17
g18
(g22
S'\xd5\x07\x00\x00\x00\x00\x00\x00'
p318
tp319
Rp320
sg28
I9
sg29
I30
sg30
I0
sg31
I1118
ssS'Elizabeth Blanton'
p321
(dp322
g3
I4
sg4
I114
sg5
S'University of Virginia'
p323
sg7
I2
sg8
Fnan
sg10
I493
sg11
g63
sg13
I47
sg14
I16
sg15
g42
sg17
g18
(g22
S'\xd1\x07\x00\x00\x00\x00\x00\x00'
p324
tp325
Rp326
sg28
I3
sg29
I14
sg30
I0
sg31
I471
ssS'Jeremiah Darling'
p327
(dp328
g3
I14
sg4
I49
sg5
g197
sg7
I2
sg8
S'Cornell University - 2002'
p329
sg10
I234
sg11
g12
sg13
I35
sg14
I64
sg15
g16
sg17
g18
(g22
S'\xd5\x07\x00\x00\x00\x00\x00\x00'
p330
tp331
Rp332
sg28
I11
sg29
I28
sg30
I0
sg31
I658
ssS'Eliot Quataert'
p333
(dp334
g3
I2
sg4
I186
sg5
S'Institute for Advanced Study'
p335
sg7
I4
sg8
Fnan
sg10
I1195
sg11
g12
sg13
I29
sg14
I9
sg15
g42
sg17
g18
(g22
S'\xcf\x07\x00\x00\x00\x00\x00\x00'
p336
tp337
Rp338
sg28
I9
sg29
I23
sg30
I0
sg31
I631
ssS'Nathan Smith'
p339
(dp340
g3
I31
sg4
I355
sg5
g197
sg7
I18
sg8
S'University of Minnesota 2002'
p341
sg10
I4005
sg11
g12
sg13
I368
sg14
I277
sg15
g16
sg17
g18
(g22
S'\xd3\x07\x00\x00\x00\x00\x00\x00'
p342
tp343
Rp344
sg28
I44
sg29
I107
sg30
I0
sg31
I5919
ssS'Dovi Poznanski'
p345
(dp346
g3
I4
sg4
I100
sg5
g75
sg7
I2
sg8
Fnan
sg10
I193
sg11
g12
sg13
I57
sg14
I102
sg15
g42
sg17
g18
(g22
S'\xda\x07\x00\x00\x00\x00\x00\x00'
p347
tp348
Rp349
sg28
I1
sg29
I10
sg30
I0
sg31
I512
ssS'Mary Putman_'
p350
(dp351
g3
I3
sg4
I78
sg5
g197
sg7
I1
sg8
S'Australian National University - 2000'
p352
sg10
I781
sg11
g63
sg13
I89
sg14
I31
sg15
g16
sg17
g18
(g22
S'\xd0\x07\x00\x00\x00\x00\x00\x00'
p353
tp354
Rp355
sg28
I6
sg29
I13
sg30
I0
sg31
I899
ssS'Renyu Hu'
p356
(dp357
g3
I11
sg4
I72
sg5
g248
sg7
I5
sg8
S'Massachusetts Institute of Technology - 2013'
p358
sg10
I0
sg11
g12
sg13
I43
sg14
I24
sg15
g16
sg17
g18
(g22
S'\xdd\x07\x00\x00\x00\x00\x00\x00'
p359
tp360
Rp361
sg28
I0
sg29
I17
sg30
I0
sg31
I883
ssS'Bret Lehmer'
p362
(dp363
g3
I6
sg4
I112
sg5
S'Johns Hopkins University'
p364
sg7
I2
sg8
Fnan
sg10
I314
sg11
g12
sg13
I158
sg14
I102
sg15
g42
sg17
g18
(g22
S'\xd9\x07\x00\x00\x00\x00\x00\x00'
p365
tp366
Rp367
sg28
I4
sg29
I15
sg30
I0
sg31
I1015
ssS'Tucker Jones'
p368
(dp369
g3
I155
sg4
I66
sg5
S'University of Hawaii at Manoa'
p370
sg7
I1
sg8
S'California Institute of Technology - 2012'
p371
sg10
I0
sg11
g12
sg13
I283
sg14
I4561
sg15
g16
sg17
g18
(g22
S'\xdf\x07\x00\x00\x00\x00\x00\x00'
p372
tp373
Rp374
sg28
I0
sg29
I159
sg30
I0
sg31
I3526
ssS'Masahiro Tsujimoto'
p375
(dp376
g3
I9
sg4
I64
sg5
S'Pennsylvania State University'
p377
sg7
I2
sg8
Fnan
sg10
I152
sg11
g12
sg13
I69
sg14
I39
sg15
g42
sg17
g18
(g22
S'\xd6\x07\x00\x00\x00\x00\x00\x00'
p378
tp379
Rp380
sg28
I1
sg29
I14
sg30
I0
sg31
I529
ssS'Ryan Cooke'
p381
(dp382
g3
I13
sg4
I171
sg5
g34
sg7
I3
sg8
S'University of Cambridge - 2011'
p383
sg10
I0
sg11
g12
sg13
I38
sg14
I115
sg15
g16
sg17
g18
(g22
S'\xde\x07\x00\x00\x00\x00\x00\x00'
p384
tp385
Rp386
sg28
I0
sg29
I18
sg30
I0
sg31
I772
ssS'James Hermes'
p387
(dp388
g3
I12
sg4
I39
sg5
S'University of North Carolina Chapel Hill'
p389
sg7
I0
sg8
S'University of Texas at Austin - 2013'
p390
sg10
I0
sg11
g12
sg13
I118
sg14
I121
sg15
g16
sg17
g18
(g22
S'\xdf\x07\x00\x00\x00\x00\x00\x00'
p391
tp392
Rp393
sg28
I0
sg29
I14
sg30
I0
sg31
I643
ssS'Stefi Baum'
p394
(dp395
g3
I6
sg4
I81
sg5
g48
sg7
I4
sg8
S'University of Maryland'
p396
sg10
I1291
sg11
g63
sg13
I84
sg14
I17
sg15
g16
sg17
g18
(g22
S'\xc6\x07\x00\x00\x00\x00\x00\x00'
p397
tp398
Rp399
sg28
I13
sg29
I26
sg30
I0
sg31
I1015
ssS'Paul Torrey'
p400
(dp401
g3
I6
sg4
I0
sg5
Fnan
sg7
I0
sg8
S'MIT'
p402
sg10
I0
sg11
g12
sg13
I35
sg14
I181
sg15
g16
sg17
g18
(g22
S'\xe0\x07\x00\x00\x00\x00\x00\x00'
p403
tp404
Rp405
sg28
I0
sg29
I6
sg30
I0
sg31
I564
ssS'Jenny Greene'
p406
(dp407
g3
I12
sg4
I314
sg5
g228
sg7
I4
sg8
S'Harvard University - 2006'
p408
sg10
I1359
sg11
g63
sg13
I99
sg14
I240
sg15
g16
sg17
g18
(g22
S'\xd6\x07\x00\x00\x00\x00\x00\x00'
p409
tp410
Rp411
sg28
I15
sg29
I39
sg30
I0
sg31
I2910
ssS'Jason Prochaska'
p412
(dp413
g3
I11
sg4
I418
sg5
g55
sg7
I10
sg8
S'University of California San Diego - 1998'
p414
sg10
I3477
sg11
g12
sg13
I187
sg14
I267
sg15
g16
sg17
g18
(g22
S'\xd1\x07\x00\x00\x00\x00\x00\x00'
p415
tp416
Rp417
sg28
I28
sg29
I56
sg30
I0
sg31
I3307
ssS'Tony Mroczkowski'
p418
(dp419
g3
I2
sg4
I32
sg5
g248
sg7
I3
sg8
Fnan
sg10
I34
sg11
g12
sg13
I44
sg14
I7
sg15
g42
sg17
g18
(g22
S'\xda\x07\x00\x00\x00\x00\x00\x00'
p420
tp421
Rp422
sg28
I1
sg29
I6
sg30
I0
sg31
I285
ssS'Ashley King'
p423
(dp424
g3
I254
sg4
I656
sg5
g41
sg7
I10
sg8
Fnan
sg10
I0
sg11
g12
sg13
I247
sg14
I5328
sg15
g42
sg17
g18
(g22
S'\xde\x07\x00\x00\x00\x00\x00\x00'
p425
tp426
Rp427
sg28
I0
sg29
I271
sg30
I0
sg31
I3434
ssS'Li-Xin Li'
p428
(dp429
g3
I40
sg4
I185
sg5
g112
sg7
I19
sg8
Fnan
sg10
I2712
sg11
g63
sg13
I505
sg14
I96
sg15
g42
sg17
g18
(g22
S'\xd1\x07\x00\x00\x00\x00\x00\x00'
p430
tp431
Rp432
sg28
I149
sg29
I226
sg30
I0
sg31
I6432
ssS'Eric Ford'
p433
(dp434
g3
I27
sg4
I265
sg5
g151
sg7
I5
sg8
S'Princeton University - 2003'
p435
sg10
I1167
sg11
g12
sg13
I170
sg14
I519
sg15
g16
sg17
g18
(g22
S'\xd6\x07\x00\x00\x00\x00\x00\x00'
p436
tp437
Rp438
sg28
I4
sg29
I43
sg30
I0
sg31
I1410
ssS"Daniel D'Orazio"
p439
(dp440
g3
I5
sg4
I0
sg5
Fnan
sg7
I0
sg8
S'Harvard'
p441
sg10
I0
sg11
g12
sg13
I10
sg14
I56
sg15
g42
sg17
g18
(g22
S'\xe0\x07\x00\x00\x00\x00\x00\x00'
p442
tp443
Rp444
sg28
I0
sg29
I5
sg30
I0
sg31
I187
ssS'Neal Dalal'
p445
(dp446
g3
I5
sg4
I122
sg5
S'Princeton Institute for Advanced Study'
p447
sg7
I3
sg8
S'University of California San Diego 2002'
p448
sg10
I1014
sg11
g12
sg13
I28
sg14
I12
sg15
g16
sg17
g18
(g22
S'\xd2\x07\x00\x00\x00\x00\x00\x00'
p449
tp450
Rp451
sg28
I4
sg29
I16
sg30
I0
sg31
I543
ssS'Ata Sarajedini'
p452
(dp453
g3
I11
sg4
I151
sg5
S'Kitt Peak National Observatory (yr 1) San Francisco State University of (yr 2-3)'
p454
sg7
I5
sg8
S'Yale University - 1992'
p455
sg10
I1406
sg11
g12
sg13
I75
sg14
I173
sg15
g16
sg17
g18
(g22
S'\xcb\x07\x00\x00\x00\x00\x00\x00'
p456
tp457
Rp458
sg28
I16
sg29
I38
sg30
I0
sg31
I1401
ssS'Ian Crossfield'
p459
(dp460
g3
I10
sg4
I150
sg5
Fnan
sg7
I2
sg8
S'Lunar and Planetary Science Laboratory, University of Arizona'
p461
sg10
I0
sg11
g12
sg13
I60
sg14
I104
sg15
g133
sg17
g18
(g22
S'\xde\x07\x00\x00\x00\x00\x00\x00'
p462
tp463
Rp464
sg28
I0
sg29
I14
sg30
I0
sg31
I1150
ssS'Joshua Younger'
p465
(dp466
g3
I13
sg4
I199
sg5
g447
sg7
I2
sg8
S'Harvard University - 2009'
p467
sg10
I223
sg11
g12
sg13
I143
sg14
I81
sg15
g16
sg17
g18
(g22
S'\xd9\x07\x00\x00\x00\x00\x00\x00'
p468
tp469
Rp470
sg28
I3
sg29
I24
sg30
I0
sg31
I1686
ssS'James Guillochon'
p471
(dp472
g3
I3
sg4
I207
sg5
g112
sg7
I6
sg8
Fnan
sg10
I0
sg11
g12
sg13
I18
sg14
I72
sg15
g42
sg17
g18
(g22
S'\xdd\x07\x00\x00\x00\x00\x00\x00'
p473
tp474
Rp475
sg28
I0
sg29
I11
sg30
I0
sg31
I568
ssS'Dan Scolnic'
p476
(dp477
g3
I5
sg4
I0
sg5
Fnan
sg7
I0
sg8
S'UChicago'
p478
sg10
I0
sg11
g12
sg13
I77
sg14
I91
sg15
g16
sg17
g18
(g22
S'\xe0\x07\x00\x00\x00\x00\x00\x00'
p479
tp480
Rp481
sg28
I0
sg29
I5
sg30
I0
sg31
I186
ssS'Pieter van Dokkum'
p482
(dp483
g3
I5
sg4
I254
sg5
g261
sg7
I6
sg8
S'Groningen 1999'
p484
sg10
I4654
sg11
g12
sg13
I218
sg14
I104
sg15
g16
sg17
g18
(g22
S'\xcf\x07\x00\x00\x00\x00\x00\x00'
p485
tp486
Rp487
sg28
I27
sg29
I41
sg30
I0
sg31
I2301
ssS'Todd Henry'
p488
(dp489
g3
I6
sg4
I78
sg5
g281
sg7
I1
sg8
S'University of Arizona'
p490
sg10
I1377
sg11
g12
sg13
I38
sg14
I76
sg15
g16
sg17
g18
(g22
S'\xca\x07\x00\x00\x00\x00\x00\x00'
p491
tp492
Rp493
sg28
I4
sg29
I13
sg30
I0
sg31
I461
ssS'Linhua Jiang'
p494
(dp495
g3
I17
sg4
I199
sg5
g190
sg7
I4
sg8
S'University of Arizona - 2008'
p496
sg10
I209
sg11
g12
sg13
I196
sg14
I288
sg15
g16
sg17
g18
(g22
S'\xdb\x07\x00\x00\x00\x00\x00\x00'
p497
tp498
Rp499
sg28
I11
sg29
I35
sg30
I0
sg31
I1685
ssS'Doron Chelouche'
p500
(dp501
g3
I4
sg4
I27
sg5
g335
sg7
I2
sg8
Fnan
sg10
I281
sg11
g12
sg13
I27
sg14
I14
sg15
g42
sg17
g18
(g22
S'\xd4\x07\x00\x00\x00\x00\x00\x00'
p502
tp503
Rp504
sg28
I11
sg29
I19
sg30
I0
sg31
I1007
ssS'Adam Frank'
p505
(dp506
g3
I12
sg4
I129
sg5
S'University of Minnesota'
p507
sg7
I3
sg8
S'University of Washington - 1992'
p508
sg10
I753
sg11
g12
sg13
I67
sg14
I58
sg15
g16
sg17
g18
(g22
S'\xcb\x07\x00\x00\x00\x00\x00\x00'
p509
tp510
Rp511
sg28
I12
sg29
I33
sg30
I0
sg31
I1210
ssS'Prateek Sharma'
p512
(dp513
g3
I17
sg4
I84
sg5
S'University of California at Berkeley'
p514
sg7
I5
sg8
Fnan
sg10
I378
sg11
g12
sg13
I76
sg14
I145
sg15
g42
sg17
g18
(g22
S'\xd8\x07\x00\x00\x00\x00\x00\x00'
p515
tp516
Rp517
sg28
I10
sg29
I36
sg30
I0
sg31
I850
ssS'Akos Bogdan'
p518
(dp519
g3
I5
sg4
I58
sg5
g169
sg7
I5
sg8
Fnan
sg10
I72
sg11
g12
sg13
I78
sg14
I24
sg15
g42
sg17
g18
(g22
S'\xdb\x07\x00\x00\x00\x00\x00\x00'
p520
tp521
Rp522
sg28
I2
sg29
I16
sg30
I0
sg31
I688
ssS'Elena Gallo'
p523
(dp524
g3
I7
sg4
I183
sg5
S'University of California Santa Barbara'
p525
sg7
I4
sg8
Fnan
sg10
I810
sg11
g63
sg13
I74
sg14
I51
sg15
g42
sg17
g18
(g22
S'\xd5\x07\x00\x00\x00\x00\x00\x00'
p526
tp527
Rp528
sg28
I14
sg29
I32
sg30
I0
sg31
I1247
ssS'Jong-Hak Woo'
p529
(dp530
g3
I28
sg4
I175
sg5
S'University of California Los Angeles'
p531
sg7
I1
sg8
S'Yale University - 2005'
p532
sg10
I660
sg11
g12
sg13
I104
sg14
I400
sg15
g16
sg17
g18
(g22
S'\xd8\x07\x00\x00\x00\x00\x00\x00'
p533
tp534
Rp535
sg28
I8
sg29
I40
sg30
I0
sg31
I1534
ssS'Gordon Squires'
p536
(dp537
g3
I7
sg4
I72
sg5
g261
sg7
I0
sg8
S'University of Toronto - 1995'
p538
sg10
I121
sg11
g12
sg13
I18
sg14
I71
sg15
g16
sg17
g18
(g22
S'\xce\x07\x00\x00\x00\x00\x00\x00'
p539
tp540
Rp541
sg28
I0
sg29
I7
sg30
I0
sg31
I139
ssS'Rebecca A. Bernstein'
p542
(dp543
g3
I3
sg4
I6
sg5
g55
sg7
I1
sg8
S'California Institute of Technology - 1997'
p544
sg10
I287
sg11
g63
sg13
I14
sg14
I10
sg15
g16
sg17
g18
(g22
S'\xcd\x07\x00\x00\x00\x00\x00\x00'
p545
tp546
Rp547
sg28
I6
sg29
I10
sg30
I0
sg31
I335
ssS'Lisa Kewley'
p548
(dp549
g3
I8
sg4
I281
sg5
g176
sg7
I3
sg8
S'Australian National University - 2002'
p550
sg10
I3396
sg11
g63
sg13
I73
sg14
I123
sg15
g16
sg17
g18
(g22
S'\xd4\x07\x00\x00\x00\x00\x00\x00'
p551
tp552
Rp553
sg28
I6
sg29
I20
sg30
I0
sg31
I1394
ssS'Jeremy Schnittman'
p554
(dp555
g3
I9
sg4
I172
sg5
g364
sg7
I3
sg8
Fnan
sg10
I524
sg11
g12
sg13
I24
sg14
I68
sg15
g42
sg17
g18
(g22
S'\xd7\x07\x00\x00\x00\x00\x00\x00'
p556
tp557
Rp558
sg28
I9
sg29
I25
sg30
I0
sg31
I1345
ssS'Tyler Robinson'
p559
(dp560
g3
I68
sg4
I19
sg5
Fnan
sg7
I1
sg8
S'University of California, Santa Cruz'
p561
sg10
I0
sg11
g12
sg13
I75
sg14
I493
sg15
g133
sg17
g18
(g22
S'\xdf\x07\x00\x00\x00\x00\x00\x00'
p562
tp563
Rp564
sg28
I0
sg29
I69
sg30
I0
sg31
I775
ssS'Hsiao-Wen Chen'
p565
(dp566
g3
I67
sg4
I168
sg5
g69
sg7
I11
sg8
S'State University of New York Stony Brook - 1999'
p567
sg10
I2178
sg11
g12
sg13
I482
sg14
I790
sg15
g16
sg17
g18
(g22
S'\xd2\x07\x00\x00\x00\x00\x00\x00'
p568
tp569
Rp570
sg28
I70
sg29
I156
sg30
I0
sg31
I4903
ssS'Katherine Whitaker'
p571
(dp572
g3
I9
sg4
I84
sg5
S'University of Massachusetts Amherst'
p573
sg7
I0
sg8
S'Yale University - 2012'
p574
sg10
I0
sg11
g63
sg13
I85
sg14
I318
sg15
g16
sg17
g18
(g22
S'\xdf\x07\x00\x00\x00\x00\x00\x00'
p575
tp576
Rp577
sg28
I0
sg29
I10
sg30
I0
sg31
I612
ssS'Rodgrigo Fernandez'
p578
(dp579
g3
I5
sg4
I60
sg5
g335
sg7
I4
sg8
Fnan
sg10
I340
sg11
g12
sg13
I36
sg14
I55
sg15
g42
sg17
g18
(g22
S'\xd9\x07\x00\x00\x00\x00\x00\x00'
p580
tp581
Rp582
sg28
I8
sg29
I23
sg30
I0
sg31
I1033
ssS'Michael Gladders'
p583
(dp584
g3
I9
sg4
I145
sg5
g312
sg7
I1
sg8
S'University of Toronto 2002'
p585
sg10
I559
sg11
g12
sg13
I54
sg14
I176
sg15
g16
sg17
g18
(g22
S'\xd5\x07\x00\x00\x00\x00\x00\x00'
p586
tp587
Rp588
sg28
I2
sg29
I13
sg30
I0
sg31
I522
ssS'Neda Safizadeh'
p589
(dp590
g3
I2
sg4
I2
sg5
Fnan
sg7
I0
sg8
S'California Institute of Technology'
p591
sg10
I8
sg11
g63
sg13
I2
sg14
I10
sg15
g133
sg17
g18
(g22
S'\xd2\x07\x00\x00\x00\x00\x00\x00'
p592
tp593
Rp594
sg28
I0
sg29
I2
sg30
I0
sg31
I37
ssS'Maria Petropoulou'
p595
(dp596
g3
I6
sg4
I64
sg5
S'Purdue University'
p597
sg7
I10
sg8
Fnan
sg10
I0
sg11
g63
sg13
I27
sg14
I16
sg15
g42
sg17
g18
(g22
S'\xdd\x07\x00\x00\x00\x00\x00\x00'
p598
tp599
Rp600
sg28
I0
sg29
I17
sg30
I0
sg31
I852
ssS'Jeong-Eun Lee'
p601
(dp602
g3
I117
sg4
I460
sg5
g531
sg7
I40
sg8
S'University of Texas 2005'
p603
sg10
I3837
sg11
g12
sg13
I888
sg14
I1146
sg15
g16
sg17
g18
(g22
S'\xd5\x07\x00\x00\x00\x00\x00\x00'
p604
tp605
Rp606
sg28
I144
sg29
I331
sg30
I0
sg31
I10180
ssS'David Buote'
p607
(dp608
g3
I11
sg4
I152
sg5
g34
sg7
I6
sg8
Fnan
sg10
I1495
sg11
g12
sg13
I41
sg14
I132
sg15
g42
sg17
g18
(g22
S'\xce\x07\x00\x00\x00\x00\x00\x00'
p609
tp610
Rp611
sg28
I11
sg29
I33
sg30
I0
sg31
I1633
ssS'Trent Dupuy'
p612
(dp613
g3
I4
sg4
I115
sg5
g169
sg7
I2
sg8
g49
sg10
I292
sg11
g12
sg13
I46
sg14
I18
sg15
g16
sg17
g18
(g22
S'\xda\x07\x00\x00\x00\x00\x00\x00'
p614
tp615
Rp616
sg28
I4
sg29
I14
sg30
I0
sg31
I1206
ssS'Martin Bureau'
p617
(dp618
g3
I7
sg4
I51
sg5
g305
sg7
I1
sg8
S'Australian National University - 1999'
p619
sg10
I453
sg11
g12
sg13
I54
sg14
I77
sg15
g16
sg17
g18
(g22
S'\xd1\x07\x00\x00\x00\x00\x00\x00'
p620
tp621
Rp622
sg28
I6
sg29
I14
sg30
I0
sg31
I733
ssS'Adam Kraus'
p623
(dp624
g3
I14
sg4
I150
sg5
g176
sg7
I3
sg8
S'California Institute of Technology - 2009'
p625
sg10
I682
sg11
g12
sg13
I86
sg14
I181
sg15
g16
sg17
g18
(g22
S'\xd9\x07\x00\x00\x00\x00\x00\x00'
p626
tp627
Rp628
sg28
I4
sg29
I26
sg30
I0
sg31
I1762
ssS'Kohta Murase'
p629
(dp630
g3
I24
sg4
I455
sg5
g447
sg7
I7
sg8
S'Kyoto University Japan - 2010'
p631
sg10
I70
sg11
g12
sg13
I65
sg14
I371
sg15
g16
sg17
g18
(g22
S'\xdc\x07\x00\x00\x00\x00\x00\x00'
p632
tp633
Rp634
sg28
I0
sg29
I38
sg30
I0
sg31
I2559
ssS'Jared Males'
p635
(dp636
g3
I784
sg4
I68
sg5
Fnan
sg7
I203
sg8
g490
sg10
I0
sg11
g12
sg13
I902
sg14
I2116
sg15
g133
sg17
g18
(g22
S'\xdd\x07\x00\x00\x00\x00\x00\x00'
p637
tp638
Rp639
sg28
I0
sg29
I1000
sg30
I0
sg31
I3157
ssS'Hannah Jang-Condell'
p640
(dp641
g3
I5
sg4
I41
sg5
Fnan
sg7
I3
sg8
S'Goddard Space Flight Center'
p642
sg10
I136
sg11
g63
sg13
I17
sg14
I49
sg15
g133
sg17
g18
(g22
S'\xd7\x07\x00\x00\x00\x00\x00\x00'
p643
tp644
Rp645
sg28
I4
sg29
I15
sg30
I0
sg31
I453
ssS'Christopher Tycner'
p646
(dp647
g3
I3
sg4
I23
sg5
Fnan
sg7
I3
sg8
S'United States Naval Observatory'
p648
sg10
I142
sg11
g12
sg13
I47
sg14
I2
sg15
g133
sg17
g18
(g22
S'\xd4\x07\x00\x00\x00\x00\x00\x00'
p649
tp650
Rp651
sg28
I2
sg29
I11
sg30
I0
sg31
I211
ssS'Andrew Hopkins'
p652
(dp653
g3
I8
sg4
I113
sg5
S'University of Pittsburgh'
p654
sg7
I4
sg8
S'Sydney - 1998'
p655
sg10
I2326
sg11
g12
sg13
I169
sg14
I38
sg15
g16
sg17
g18
(g22
S'\xd1\x07\x00\x00\x00\x00\x00\x00'
p656
tp657
Rp658
sg28
I8
sg29
I23
sg30
I0
sg31
I812
ssS'Jasonjot Kalirai'
p659
(dp660
g3
I8
sg4
I130
sg5
g34
sg7
I4
sg8
S'University of British Columbia 2004'
p661
sg10
I802
sg11
g12
sg13
I142
sg14
I60
sg15
g16
sg17
g18
(g22
S'\xd5\x07\x00\x00\x00\x00\x00\x00'
p662
tp663
Rp664
sg28
I9
sg29
I26
sg30
I0
sg31
I1244
ssS'Peter Behroozi'
p665
(dp666
g3
I9
sg4
I169
sg5
S'University of California Berkeley'
p667
sg7
I0
sg8
S'Stanford University - 2012'
p668
sg10
I0
sg11
g12
sg13
I49
sg14
I660
sg15
g16
sg17
g18
(g22
S'\xdf\x07\x00\x00\x00\x00\x00\x00'
p669
tp670
Rp671
sg28
I0
sg29
I13
sg30
I0
sg31
I1179
ssS'Kevin A Bundy'
p672
(dp673
g3
I6
sg4
I302
sg5
g667
sg7
I2
sg8
S'California Institute of Technology - 2006'
p674
sg10
I560
sg11
g12
sg13
I133
sg14
I233
sg15
g16
sg17
g18
(g22
S'\xd8\x07\x00\x00\x00\x00\x00\x00'
p675
tp676
Rp677
sg28
I3
sg29
I12
sg30
I0
sg31
I759
ssS'Kristen Menou'
p678
(dp679
g3
I0
sg4
I109
sg5
g228
sg7
I10
sg8
Fnan
sg10
I1030
sg11
g63
sg13
I64
sg14
I0
sg15
g42
sg17
g18
(g22
S'\xcf\x07\x00\x00\x00\x00\x00\x00'
p680
tp681
Rp682
sg28
I17
sg29
I31
sg30
I0
sg31
I1446
ssS'Evan Kirby'
p683
(dp684
g3
I7
sg4
I168
sg5
g261
sg7
I5
sg8
S'University of California Santa Cruz 2009'
p685
sg10
I695
sg11
g12
sg13
I96
sg14
I14
sg15
g16
sg17
g18
(g22
S'\xd9\x07\x00\x00\x00\x00\x00\x00'
p686
tp687
Rp688
sg28
I8
sg29
I27
sg30
I0
sg31
I1928
ssS'Claude-Andre Facher-Gigu\xc3\xa8re'
p689
(dp690
g3
I0
sg4
I0
sg5
g514
sg7
I0
sg8
Fnan
sg10
I0
sg11
g12
sg13
I0
sg14
I0
sg15
g42
sg17
g18
(g22
S'\xdd\x07\x00\x00\x00\x00\x00\x00'
p691
tp692
Rp693
sg28
I0
sg29
I0
sg30
I0
sg31
I0
ssS'Jessica Werk'
p694
(dp695
g3
I7
sg4
I177
sg5
g34
sg7
I1
sg8
S'University of Michigan - 2010'
p696
sg10
I0
sg11
g63
sg13
I68
sg14
I101
sg15
g16
sg17
g18
(g22
S'\xdd\x07\x00\x00\x00\x00\x00\x00'
p697
tp698
Rp699
sg28
I0
sg29
I9
sg30
I0
sg31
I554
ssS'Ben Oppenheimer'
p700
(dp701
g3
I7
sg4
I116
sg5
g667
sg7
I4
sg8
S'California Institute of Technology - 1999'
p702
sg10
I1707
sg11
g12
sg13
I102
sg14
I70
sg15
g16
sg17
g18
(g22
S'\xcf\x07\x00\x00\x00\x00\x00\x00'
p703
tp704
Rp705
sg28
I14
sg29
I26
sg30
I0
sg31
I1292
ssS'Eugene Chiang'
p706
(dp707
g3
I5
sg4
I173
sg5
g447
sg7
I7
sg8
S'California Institute of Technology - 2000'
p708
sg10
I1915
sg11
g12
sg13
I49
sg14
I39
sg15
g16
sg17
g18
(g22
S'\xd0\x07\x00\x00\x00\x00\x00\x00'
p709
tp710
Rp711
sg28
I9
sg29
I27
sg30
I0
sg31
I827
ssS'Smadar Naoz'
p712
(dp713
g3
I10
sg4
I279
sg5
g112
sg7
I7
sg8
Fnan
sg10
I72
sg11
g63
sg13
I34
sg14
I149
sg15
g42
sg17
g18
(g22
S'\xdc\x07\x00\x00\x00\x00\x00\x00'
p714
tp715
Rp716
sg28
I0
sg29
I20
sg30
I0
sg31
I1057
ssS'Fabian Schmidt'
p717
(dp718
g3
I26
sg4
I299
sg5
g228
sg7
I7
sg8
Fnan
sg10
I36
sg11
g12
sg13
I76
sg14
I338
sg15
g42
sg17
g18
(g22
S'\xdc\x07\x00\x00\x00\x00\x00\x00'
p719
tp720
Rp721
sg28
I0
sg29
I38
sg30
I0
sg31
I1192
ssS'Joey Neilsen'
p722
(dp723
g3
I6
sg4
I113
sg5
S'Boston University'
p724
sg7
I3
sg8
Fnan
sg10
I32
sg11
g12
sg13
I52
sg14
I56
sg15
g42
sg17
g18
(g22
S'\xdc\x07\x00\x00\x00\x00\x00\x00'
p725
tp726
Rp727
sg28
I0
sg29
I13
sg30
I0
sg31
I599
ssS'Simon Portegies Zwart'
p728
(dp729
g3
I8
sg4
I171
sg5
S'Boston University of (yrs 1-2) Massachusetts Institute of Technology (yr 3)'
p730
sg7
I8
sg8
S'Utrecht 1997'
p731
sg10
I2964
sg11
g12
sg13
I140
sg14
I33
sg15
g16
sg17
g18
(g22
S'\xce\x07\x00\x00\x00\x00\x00\x00'
p732
tp733
Rp734
sg28
I31
sg29
I53
sg30
I0
sg31
I1976
ssS'Sloane Wiktorowicz'
p735
(dp736
g3
I4
sg4
I5
sg5
Fnan
sg7
I0
sg8
g561
sg10
I23
sg11
g12
sg13
I11
sg14
I8
sg15
g133
sg17
g18
(g22
S'\xdb\x07\x00\x00\x00\x00\x00\x00'
p737
tp738
Rp739
sg28
I2
sg29
I7
sg30
I0
sg31
I215
ssS'Romeel Dav\xc3\xa8'
p740
(dp741
g3
I3
sg4
I4
sg5
g95
sg7
I2
sg8
S'University of California Santa Cruz 1998'
p742
sg10
I54
sg11
g12
sg13
I6
sg14
I9
sg15
g16
sg17
g18
(g22
S'\xd0\x07\x00\x00\x00\x00\x00\x00'
p743
tp744
Rp745
sg28
I0
sg29
I5
sg30
I0
sg31
I43
ssS'Charles Keeton_'
p746
(dp747
g3
I8
sg4
I219
sg5
S'University of Chicago'
p748
sg7
I5
sg8
S'Harvard University - 1998'
p749
sg10
I1046
sg11
g12
sg13
I34
sg14
I186
sg15
g16
sg17
g18
(g22
S'\xd1\x07\x00\x00\x00\x00\x00\x00'
p750
tp751
Rp752
sg28
I9
sg29
I26
sg30
I0
sg31
I1670
ssS'Daniel Gruen'
p753
(dp754
g3
I5
sg4
I12
sg5
S'Stanford Linear Accelerator Center'
p755
sg7
I1
sg8
Fnan
sg10
I0
sg11
g12
sg13
I129
sg14
I35
sg15
g42
sg17
g18
(g22
S'\xdf\x07\x00\x00\x00\x00\x00\x00'
p756
tp757
Rp758
sg28
I0
sg29
I8
sg30
I0
sg31
I479
ssS'Anjum Mukadam'
p759
(dp760
g3
I3
sg4
I68
sg5
S'University of Washington'
p761
sg7
I2
sg8
S'University of Texas Austin 2004'
p762
sg10
I220
sg11
g12
sg13
I265
sg14
I2
sg15
g16
sg17
g18
(g22
S'\xd4\x07\x00\x00\x00\x00\x00\x00'
p763
tp764
Rp765
sg28
I7
sg29
I16
sg30
I0
sg31
I705
ssS'Debora Sijacki'
p766
(dp767
g3
I8
sg4
I209
sg5
S'Harvard College Observatory'
p768
sg7
I2
sg8
S'MPA and LMU - 2007'
p769
sg10
I335
sg11
g63
sg13
I23
sg14
I194
sg15
g16
sg17
g18
(g22
S'\xda\x07\x00\x00\x00\x00\x00\x00'
p770
tp771
Rp772
sg28
I1
sg29
I11
sg30
I0
sg31
I742
ssS'Andrew Mann'
p773
(dp774
g3
I34
sg4
I66
sg5
S'University of Texas at Austin'
p775
sg7
I2
sg8
S'University of Hawaii at Manoa - 2013'
p776
sg10
I0
sg11
g12
sg13
I57
sg14
I346
sg15
g16
sg17
g18
(g22
S'\xdf\x07\x00\x00\x00\x00\x00\x00'
p777
tp778
Rp779
sg28
I0
sg29
I38
sg30
I0
sg31
I1527
ssS'Eduardo Rozo'
p780
(dp781
g3
I4
sg4
I133
sg5
g748
sg7
I3
sg8
Fnan
sg10
I430
sg11
g12
sg13
I73
sg14
I19
sg15
g42
sg17
g18
(g22
S'\xd9\x07\x00\x00\x00\x00\x00\x00'
p782
tp783
Rp784
sg28
I6
sg29
I16
sg30
I0
sg31
I1006
ssS'Janet Wood'
p785
(dp786
g3
I80
sg4
I95
sg5
g81
sg7
I5
sg8
S'University of Cambridge'
p787
sg10
I1495
sg11
g63
sg13
I62
sg14
I924
sg15
g16
sg17
g18
(g22
S'\xc6\x07\x00\x00\x00\x00\x00\x00'
p788
tp789
Rp790
sg28
I17
sg29
I107
sg30
I0
sg31
I1089
ssS'Victoria Kaspi'
p791
(dp792
g3
I3
sg4
I151
sg5
S'Jet Propulsion Laboratory(yr 1-2) Massachusetts Institute of Technology(yr 3)'
p793
sg7
I4
sg8
S'Princeton University'
p794
sg10
I2141
sg11
g12
sg13
I132
sg14
I11
sg15
g16
sg17
g18
(g22
S'\xca\x07\x00\x00\x00\x00\x00\x00'
p795
tp796
Rp797
sg28
I21
sg29
I32
sg30
I0
sg31
I1534
ssS'Avishay Gal-Yam'
p798
(dp799
g3
I3
sg4
I106
sg5
g261
sg7
I4
sg8
S'Tel Aviv 2003'
p800
sg10
I1430
sg11
g12
sg13
I206
sg14
I15
sg15
g16
sg17
g18
(g22
S'\xd3\x07\x00\x00\x00\x00\x00\x00'
p801
tp802
Rp803
sg28
I12
sg29
I22
sg30
I0
sg31
I1010
ssS'Ivo F L Labbe'
p804
(dp805
g3
I5
sg4
I119
sg5
g312
sg7
I0
sg8
S'Leiden 2004'
p806
sg10
I495
sg11
g12
sg13
I95
sg14
I157
sg15
g16
sg17
g18
(g22
S'\xd7\x07\x00\x00\x00\x00\x00\x00'
p807
tp808
Rp809
sg28
I2
sg29
I10
sg30
I0
sg31
I419
ssS'Jon Miller'
p810
(dp811
g3
I160
sg4
I634
sg5
g169
sg7
I13
sg8
Fnan
sg10
I2487
sg11
g12
sg13
I489
sg14
I3341
sg15
g42
sg17
g18
(g22
S'\xd5\x07\x00\x00\x00\x00\x00\x00'
p812
tp813
Rp814
sg28
I25
sg29
I209
sg30
I0
sg31
I4066
ssS'Beth A Biller'
p815
(dp816
g3
I4
sg4
I56
sg5
S'University of Hawaii Institute for Astronomy'
p817
sg7
I1
sg8
S'University of Arizona - 2007'
p818
sg10
I354
sg11
g63
sg13
I170
sg14
I23
sg15
g16
sg17
g18
(g22
S'\xd7\x07\x00\x00\x00\x00\x00\x00'
p819
tp820
Rp821
sg28
I7
sg29
I16
sg30
I0
sg31
I733
ssS'Hans-Walter R. Rix'
p822
(dp823
g3
I7
sg4
I60
sg5
g447
sg7
I6
sg8
g490
sg10
I1908
sg11
g12
sg13
I48
sg14
I5
sg15
g16
sg17
g18
(g22
S'\xc7\x07\x00\x00\x00\x00\x00\x00'
p824
tp825
Rp826
sg28
I8
sg29
I23
sg30
I0
sg31
I797
ssS'Paul Robertson'
p827
(dp828
g3
I21
sg4
I46
sg5
Fnan
sg7
I0
sg8
S'Pennsylvania State University'
p829
sg10
I0
sg11
g12
sg13
I59
sg14
I135
sg15
g133
sg17
g18
(g22
S'\xdf\x07\x00\x00\x00\x00\x00\x00'
p830
tp831
Rp832
sg28
I0
sg29
I24
sg30
I0
sg31
I482
ssS'Yong-Ik Byun'
p833
(dp834
g3
I1
sg4
I11
sg5
g176
sg7
I3
sg8
S'Australian National University'
p835
sg10
I333
sg11
g12
sg13
I12
sg14
I0
sg15
g16
sg17
g18
(g22
S'\xc8\x07\x00\x00\x00\x00\x00\x00'
p836
tp837
Rp838
sg28
I4
sg29
I10
sg30
I0
sg31
I98
ssS'Janice Lee'
p839
(dp840
g3
I131
sg4
I493
sg5
S'National Optical Astronomy Observatory'
p841
sg7
I38
sg8
S'University of Arizona 2006'
p842
sg10
I3448
sg11
g63
sg13
I888
sg14
I1314
sg15
g16
sg17
g18
(g22
S'\xd6\x07\x00\x00\x00\x00\x00\x00'
p843
tp844
Rp845
sg28
I121
sg29
I331
sg30
I0
sg31
I10180
ssS'Philip Hopkins'
p846
(dp847
g3
I46
sg4
I2080
sg5
g514
sg7
I19
sg8
Fnan
sg10
I1786
sg11
g12
sg13
I221
sg14
I2706
sg15
g42
sg17
g18
(g22
S'\xdb\x07\x00\x00\x00\x00\x00\x00'
p848
tp849
Rp850
sg28
I6
sg29
I78
sg30
I0
sg31
I10283
ssS'Robert Blum'
p851
(dp852
g3
I6
sg4
I100
sg5
S'JILA University of Colorado'
p853
sg7
I4
sg8
S'The Ohio State University- 1995'
p854
sg10
I895
sg11
g12
sg13
I99
sg14
I26
sg15
g16
sg17
g18
(g22
S'\xcb\x07\x00\x00\x00\x00\x00\x00'
p855
tp856
Rp857
sg28
I12
sg29
I27
sg30
I0
sg31
I1050
ssS'John Wise'
p858
(dp859
g3
I9
sg4
I185
sg5
g228
sg7
I1
sg8
S'Stanford University - 2007'
p860
sg10
I640
sg11
Fnan
sg13
I33
sg14
I111
sg15
g16
sg17
g18
(g22
S'\xd9\x07\x00\x00\x00\x00\x00\x00'
p861
tp862
Rp863
sg28
I1
sg29
I15
sg30
I0
sg31
I1334
ssS'Mateusz Ruszkowski'
p864
(dp865
g3
I7
sg4
I131
sg5
S'Colorado State University'
p866
sg7
I2
sg8
Fnan
sg10
I550
sg11
g12
sg13
I33
sg14
I24
sg15
g42
sg17
g18
(g22
S'\xd3\x07\x00\x00\x00\x00\x00\x00'
p867
tp868
Rp869
sg28
I8
sg29
I19
sg30
I0
sg31
I691
ssS'Franz Bauer'
p870
(dp871
g3
I14
sg4
I166
sg5
g305
sg7
I5
sg8
Fnan
sg10
I740
sg11
g12
sg13
I121
sg14
I138
sg15
g42
sg17
g18
(g22
S'\xd4\x07\x00\x00\x00\x00\x00\x00'
p872
tp873
Rp874
sg28
I16
sg29
I40
sg30
I0
sg31
I1890
ssS'Roman Shcherbakov'
p875
(dp876
g3
I6
sg4
I95
sg5
g163
sg7
I3
sg8
S'Harvard University - 2011'
p877
sg10
I64
sg11
g12
sg13
I15
sg14
I35
sg15
g16
sg17
g18
(g22
S'\xdb\x07\x00\x00\x00\x00\x00\x00'
p878
tp879
Rp880
sg28
I0
sg29
I14
sg30
I0
sg31
I683
ssS'Kyle Parfrey'
p881
(dp882
g3
I6
sg4
I13
sg5
g75
sg7
I0
sg8
Fnan
sg10
I0
sg11
g12
sg13
I11
sg14
I73
sg15
g42
sg17
g18
(g22
S'\xdf\x07\x00\x00\x00\x00\x00\x00'
p883
tp884
Rp885
sg28
I0
sg29
I7
sg30
I0
sg31
I264
ssS'Sebastian Heinz'
p886
(dp887
g3
I10
sg4
I179
sg5
g69
sg7
I5
sg8
Fnan
sg10
I777
sg11
g12
sg13
I59
sg14
I88
sg15
g42
sg17
g18
(g22
S'\xd3\x07\x00\x00\x00\x00\x00\x00'
p888
tp889
Rp890
sg28
I11
sg29
I31
sg30
I0
sg31
I852
ssS'Andrei Mesinger'
p891
(dp892
g3
I9
sg4
I114
sg5
g228
sg7
I3
sg8
S'Columbia University - 2006'
p893
sg10
I628
sg11
g12
sg13
I36
sg14
I141
sg15
g16
sg17
g18
(g22
S'\xd8\x07\x00\x00\x00\x00\x00\x00'
p894
tp895
Rp896
sg28
I5
sg29
I21
sg30
I0
sg31
I1204
ssS'Vivien Parmentier'
p897
(dp898
g3
I3
sg4
I52
sg5
Fnan
sg7
I2
sg8
g561
sg10
I0
sg11
g63
sg13
I8
sg14
I11
sg15
g133
sg17
g18
(g22
S'\xde\x07\x00\x00\x00\x00\x00\x00'
p899
tp900
Rp901
sg28
I0
sg29
I7
sg30
I0
sg31
I273
ssS'Laura Ferrarese'
p902
(dp903
g3
I1
sg4
I111
sg5
g261
sg7
I2
sg8
S'The Johns Hopkins University - 1995'
p904
sg10
I5333
sg11
g63
sg13
I183
sg14
I6
sg15
g16
sg17
g18
(g22
S'\xcc\x07\x00\x00\x00\x00\x00\x00'
p905
tp906
Rp907
sg28
I12
sg29
I20
sg30
I0
sg31
I1732
ssS'B. Scott Gaudi'
p908
(dp909
g3
I6
sg4
I99
sg5
g447
sg7
I6
sg8
S'The Ohio State University - 2000'
p910
sg10
I907
sg11
g12
sg13
I141
sg14
I59
sg15
g16
sg17
g18
(g22
S'\xd0\x07\x00\x00\x00\x00\x00\x00'
p911
tp912
Rp913
sg28
I10
sg29
I27
sg30
I0
sg31
I1150
ssS'Joseph Richards'
p914
(dp915
g3
I21
sg4
I140
sg5
g75
sg7
I3
sg8
S'Carnegie Mellon University - 2010'
p916
sg10
I0
sg11
g12
sg13
I90
sg14
I156
sg15
g16
sg17
g18
(g22
S'\xdd\x07\x00\x00\x00\x00\x00\x00'
p917
tp918
Rp919
sg28
I0
sg29
I24
sg30
I0
sg31
I461
ssS'Mansi Kasliwal'
p920
(dp921
g3
I6
sg4
I91
sg5
S'Carnegie'
p922
sg7
I2
sg8
S'California Institute of Technology - 2011'
p923
sg10
I84
sg11
g63
sg13
I158
sg14
I45
sg15
g16
sg17
g18
(g22
S'\xdb\x07\x00\x00\x00\x00\x00\x00'
p924
tp925
Rp926
sg28
I0
sg29
I13
sg30
I0
sg31
I576
ssS'Maryam Modjaz'
p927
(dp928
g3
I7
sg4
I216
sg5
g305
sg7
I4
sg8
S'Harvard University - 2007'
p929
sg10
I237
sg11
g63
sg13
I91
sg14
I243
sg15
g16
sg17
g18
(g22
S'\xda\x07\x00\x00\x00\x00\x00\x00'
p930
tp931
Rp932
sg28
I1
sg29
I12
sg30
I0
sg31
I936
ssS'Matthew Walker'
p933
(dp934
g3
I157
sg4
I413
sg5
g768
sg7
I2
sg8
S'University of Michigan 2007'
p935
sg10
I650
sg11
g12
sg13
I140
sg14
I3633
sg15
g16
sg17
g18
(g22
S'\xda\x07\x00\x00\x00\x00\x00\x00'
p936
tp937
Rp938
sg28
I6
sg29
I169
sg30
I0
sg31
I2537
ssS'Peter Lundqvist'
p939
(dp940
g3
I2
sg4
I20
sg5
g323
sg7
I2
sg8
S'University of Lund Sweden'
p941
sg10
I316
sg11
g12
sg13
I39
sg14
I9
sg15
g16
sg17
g18
(g22
S'\xc6\x07\x00\x00\x00\x00\x00\x00'
p942
tp943
Rp944
sg28
I8
sg29
I12
sg30
I0
sg31
I591
ssS'Liang Dai'
p945
(dp946
g3
I24
sg4
I39
sg5
S'Institute for Advanced Study Princeton'
p947
sg7
I1
sg8
Fnan
sg10
I0
sg11
g12
sg13
I122
sg14
I174
sg15
g42
sg17
g18
(g22
S'\xdf\x07\x00\x00\x00\x00\x00\x00'
p948
tp949
Rp950
sg28
I0
sg29
I31
sg30
I0
sg31
I1252
ssS'Jajadev Rajagopal'
p951
(dp952
g3
I5
sg4
I1
sg5
Fnan
sg7
I0
sg8
g396
sg10
I16
sg11
g12
sg13
I16
sg14
I7
sg15
g133
sg17
g18
(g22
S'\xd2\x07\x00\x00\x00\x00\x00\x00'
p953
tp954
Rp955
sg28
I1
sg29
I6
sg30
I0
sg31
I156
ssS'Daniel Weisz'
p956
(dp957
g3
I8
sg4
I295
sg5
g34
sg7
I6
sg8
S'University of Minnesota - 2010'
p958
sg10
I0
sg11
g12
sg13
I143
sg14
I172
sg15
g16
sg17
g18
(g22
S'\xdd\x07\x00\x00\x00\x00\x00\x00'
p959
tp960
Rp961
sg28
I0
sg29
I16
sg30
I0
sg31
I1241
ssS'Jennifer Wiseman'
p962
(dp963
g3
I7
sg4
I24
sg5
g48
sg7
I0
sg8
g294
sg10
I96
sg11
g63
sg13
I9
sg14
I25
sg15
g16
sg17
g18
(g22
S'\xce\x07\x00\x00\x00\x00\x00\x00'
p964
tp965
Rp966
sg28
I1
sg29
I10
sg30
I0
sg31
I295
ssS'Hilke Schlichting'
p967
(dp968
g3
I8
sg4
I62
sg5
g531
sg7
I4
sg8
g625
sg10
I128
sg11
g63
sg13
I31
sg14
I73
sg15
g16
sg17
g18
(g22
S'\xda\x07\x00\x00\x00\x00\x00\x00'
p969
tp970
Rp971
sg28
I2
sg29
I15
sg30
I0
sg31
I435
ssS'Naveen Reddy'
p972
(dp973
g3
I7
sg4
I369
sg5
g841
sg7
I2
sg8
g674
sg10
I936
sg11
g12
sg13
I66
sg14
I172
sg15
g16
sg17
g18
(g22
S'\xd8\x07\x00\x00\x00\x00\x00\x00'
p974
tp975
Rp976
sg28
I3
sg29
I14
sg30
I0
sg31
I1035
ssS'Simeon Bird'
p977
(dp978
g3
I7
sg4
I24
sg5
g364
sg7
I0
sg8
Fnan
sg10
I0
sg11
g12
sg13
I33
sg14
I137
sg15
g42
sg17
g18
(g22
S'\xdf\x07\x00\x00\x00\x00\x00\x00'
p979
tp980
Rp981
sg28
I0
sg29
I10
sg30
I0
sg31
I573
ssS'Weiquin Zhang'
p982
(dp983
g3
I20
sg4
I177
sg5
g41
sg7
I9
sg8
Fnan
sg10
I1169
sg11
g12
sg13
I221
sg14
I522
sg15
g42
sg17
g18
(g22
S'\xd4\x07\x00\x00\x00\x00\x00\x00'
p984
tp985
Rp986
sg28
I39
sg29
I75
sg30
I0
sg31
I1793
ssS'Lucas Macri'
p987
(dp988
g3
I8
sg4
I40
sg5
g841
sg7
I1
sg8
S'Harvard University - 2001'
p989
sg10
I362
sg11
g12
sg13
I68
sg14
I38
sg15
g16
sg17
g18
(g22
S'\xd2\x07\x00\x00\x00\x00\x00\x00'
p990
tp991
Rp992
sg28
I6
sg29
I15
sg30
I0
sg31
I300
ssS'Nicolas Yunes'
p993
(dp994
g3
I13
sg4
I300
sg5
g69
sg7
I6
sg8
Fnan
sg10
I305
sg11
g12
sg13
I48
sg14
I109
sg15
g42
sg17
g18
(g22
S'\xda\x07\x00\x00\x00\x00\x00\x00'
p995
tp996
Rp997
sg28
I1
sg29
I28
sg30
I0
sg31
I2000
ssS'Orly Gnat'
p998
(dp999
g3
I2
sg4
I51
sg5
g145
sg7
I3
sg8
Fnan
sg10
I138
sg11
g63
sg13
I7
sg14
I9
sg15
g42
sg17
g18
(g22
S'\xd8\x07\x00\x00\x00\x00\x00\x00'
p1000
tp1001
Rp1002
sg28
I1
sg29
I7
sg30
I0
sg31
I428
ssS'Thomas Herbig'
p1003
(dp1004
g3
I1
sg4
I10
sg5
g228
sg7
I2
sg8
g591
sg10
I178
sg11
g12
sg13
I9
sg14
I2
sg15
g16
sg17
g18
(g22
S'\xc9\x07\x00\x00\x00\x00\x00\x00'
p1005
tp1006
Rp1007
sg28
I1
sg29
I4
sg30
I0
sg31
I54
ssS'Stella Offner'
p1008
(dp1009
g3
I10
sg4
I186
sg5
g6
sg7
I5
sg8
S'University of California Berkeley - 2009'
p1010
sg10
I48
sg11
g63
sg13
I41
sg14
I139
sg15
g16
sg17
g18
(g22
S'\xdc\x07\x00\x00\x00\x00\x00\x00'
p1011
tp1012
Rp1013
sg28
I0
sg29
I18
sg30
I0
sg31
I1108
ssS'Luke Roberts'
p1014
(dp1015
g3
I25
sg4
I195
sg5
g145
sg7
I4
sg8
Fnan
sg10
I0
sg11
g12
sg13
I151
sg14
I153
sg15
g42
sg17
g18
(g22
S'\xdd\x07\x00\x00\x00\x00\x00\x00'
p1016
tp1017
Rp1018
sg28
I0
sg29
I29
sg30
I0
sg31
I801
ssS'Michael Liu'
p1019
(dp1020
g3
I19
sg4
I123
sg5
g176
sg7
I4
sg8
S'University of California Berkeley - 2000'
p1021
sg10
I1580
sg11
g12
sg13
I218
sg14
I163
sg15
g16
sg17
g18
(g22
S'\xd2\x07\x00\x00\x00\x00\x00\x00'
p1022
tp1023
Rp1024
sg28
I47
sg29
I75
sg30
I0
sg31
I3196
ssS'Jason Harris'
p1025
(dp1026
g3
I22
sg4
I78
sg5
g95
sg7
I2
sg8
S'University of California Santa Cruz 2000'
p1027
sg10
I825
sg11
g12
sg13
I91
sg14
I295
sg15
g16
sg17
g18
(g22
S'\xd3\x07\x00\x00\x00\x00\x00\x00'
p1028
tp1029
Rp1030
sg28
I8
sg29
I34
sg30
I0
sg31
I838
ssS'Julianne Dalcanton'
p1031
(dp1032
g3
I1
sg4
I31
sg5
g55
sg7
I3
sg8
g794
sg10
I1574
sg11
g63
sg13
I112
sg14
I1
sg15
g16
sg17
g18
(g22
S'\xca\x07\x00\x00\x00\x00\x00\x00'
p1033
tp1034
Rp1035
sg28
I14
sg29
I22
sg30
I0
sg31
I1551
ssS'Elena Rossi'
p1036
(dp1037
g3
I5
sg4
I81
sg5
g866
sg7
I2
sg8
Fnan
sg10
I195
sg11
g63
sg13
I36
sg14
I109
sg15
g42
sg17
g18
(g22
S'\xd5\x07\x00\x00\x00\x00\x00\x00'
p1038
tp1039
Rp1040
sg28
I3
sg29
I13
sg30
I0
sg31
I350
ssS'Jean-Philippe Berger'
p1041
(dp1042
g3
I28
sg4
I24
sg5
Fnan
sg7
I1
sg8
g215
sg10
I152
sg11
g12
sg13
I120
sg14
I249
sg15
g133
sg17
g18
(g22
S'\xd0\x07\x00\x00\x00\x00\x00\x00'
p1043
tp1044
Rp1045
sg28
I7
sg29
I36
sg30
I0
sg31
I535
ssS'Paul Callanan'
p1046
(dp1047
g3
I5
sg4
I29
sg5
g151
sg7
I3
sg8
S'University of Galway Ireland'
p1048
sg10
I398
sg11
g12
sg13
I70
sg14
I7
sg15
g16
sg17
g18
(g22
S'\xc6\x07\x00\x00\x00\x00\x00\x00'
p1049
tp1050
Rp1051
sg28
I13
sg29
I23
sg30
I0
sg31
I455
ssS'Coel Hellier'
p1052
(dp1053
g3
I11
sg4
I110
sg5
g81
sg7
I10
sg8
S'University of London'
p1054
sg10
I1388
sg11
g12
sg13
I206
sg14
I67
sg15
g16
sg17
g18
(g22
S'\xc8\x07\x00\x00\x00\x00\x00\x00'
p1055
tp1056
Rp1057
sg28
I29
sg29
I52
sg30
I0
sg31
I1228
ssS'Michael Bolte'
p1058
(dp1059
g3
I11
sg4
I77
sg5
g34
sg7
I3
sg8
g288
sg10
I479
sg11
g12
sg13
I8
sg14
I36
sg15
g16
sg17
g18
(g22
S'\xc6\x07\x00\x00\x00\x00\x00\x00'
p1060
tp1061
Rp1062
sg28
I3
sg29
I19
sg30
I0
sg31
I391
ssS'Nicholas Stone'
p1063
(dp1064
g3
I17
sg4
I30
sg5
g305
sg7
I1
sg8
Fnan
sg10
I0
sg11
g12
sg13
I36
sg14
I273
sg15
g42
sg17
g18
(g22
S'\xdf\x07\x00\x00\x00\x00\x00\x00'
p1065
tp1066
Rp1067
sg28
I0
sg29
I20
sg30
I0
sg31
I741
ssS'Suzanne Staggs'
p1068
(dp1069
g3
I1
sg4
I2
sg5
S'University of Chicago/Fermi Institute'
p1070
sg7
I3
sg8
g794
sg10
I40
sg11
g63
sg13
I9
sg14
I0
sg15
g16
sg17
g18
(g22
S'\xca\x07\x00\x00\x00\x00\x00\x00'
p1071
tp1072
Rp1073
sg28
I0
sg29
I4
sg30
I0
sg31
I37
ssS'Reinout van Weeren'
p1074
(dp1075
g3
I12
sg4
I187
sg5
g169
sg7
I4
sg8
Fnan
sg10
I53
sg11
g12
sg13
I377
sg14
I100
sg15
g42
sg17
g18
(g22
S'\xdc\x07\x00\x00\x00\x00\x00\x00'
p1076
tp1077
Rp1078
sg28
I3
sg29
I22
sg30
I0
sg31
I1428
ssS'Rachel Bezanson'
p1079
(dp1080
g3
I3
sg4
I142
sg5
g95
sg7
I1
sg8
S'Yale University - 2013'
p1081
sg10
I0
sg11
g63
sg13
I30
sg14
I132
sg15
g16
sg17
g18
(g22
S'\xdd\x07\x00\x00\x00\x00\x00\x00'
p1082
tp1083
Rp1084
sg28
I0
sg29
I7
sg30
I0
sg31
I386
ssS'Ann-Marie Madigan'
p1085
(dp1086
g3
I2
sg4
I42
sg5
g514
sg7
I1
sg8
Fnan
sg10
I10
sg11
g63
sg13
I11
sg14
I22
sg15
g42
sg17
g18
(g22
S'\xdc\x07\x00\x00\x00\x00\x00\x00'
p1087
tp1088
Rp1089
sg28
I1
sg29
I6
sg30
I0
sg31
I273
ssS'Boris Leistedt'
p1090
(dp1091
g3
I8
sg4
I0
sg5
Fnan
sg7
I0
sg8
Fnan
sg10
I0
sg11
g12
sg13
I19
sg14
I120
sg15
g42
sg17
g18
(g22
S'\xe0\x07\x00\x00\x00\x00\x00\x00'
p1092
tp1093
Rp1094
sg28
I0
sg29
I8
sg30
I0
sg31
I426
ssS'Milos Milosavljevic'
p1095
(dp1096
g3
I5
sg4
I197
sg5
g261
sg7
I6
sg8
S'Rutgers 2002'
p1097
sg10
I805
sg11
g12
sg13
I29
sg14
I158
sg15
g16
sg17
g18
(g22
S'\xd5\x07\x00\x00\x00\x00\x00\x00'
p1098
tp1099
Rp1100
sg28
I4
sg29
I16
sg30
I0
sg31
I1047
ssS'Matias Zaldarriaga'
p1101
(dp1102
g3
I4
sg4
I249
sg5
g447
sg7
I3
sg8
S'Massachusetts Institute of Technology - 1998'
p1103
sg10
I2403
sg11
g12
sg13
I19
sg14
I51
sg15
g16
sg17
g18
(g22
S'\xce\x07\x00\x00\x00\x00\x00\x00'
p1104
tp1105
Rp1106
sg28
I8
sg29
I23
sg30
I0
sg31
I762
ssS'Richard Cool'
p1107
(dp1108
g3
I5
sg4
I57
sg5
S'Princeton Unversity'
p1109
sg7
I0
sg8
S'University of Arizona 2008'
p1110
sg10
I117
sg11
g12
sg13
I65
sg14
I31
sg15
g16
sg17
g18
(g22
S'\xd8\x07\x00\x00\x00\x00\x00\x00'
p1111
tp1112
Rp1113
sg28
I2
sg29
I9
sg30
I0
sg31
I411
ssS'Pascal Borde'
p1114
(dp1115
g3
I2
sg4
I32
sg5
Fnan
sg7
I0
sg8
g215
sg10
I214
sg11
g12
sg13
I58
sg14
I1
sg15
g133
sg17
g18
(g22
S'\xd3\x07\x00\x00\x00\x00\x00\x00'
p1116
tp1117
Rp1118
sg28
I2
sg29
I7
sg30
I0
sg31
I133
ssS'Aristotle Socrates'
p1119
(dp1120
g3
I0
sg4
I16
sg5
g228
sg7
I3
sg8
S'University of California Santa Barbara 2004'
p1121
sg10
I191
sg11
g12
sg13
I17
sg14
I0
sg15
g16
sg17
g18
(g22
S'\xd4\x07\x00\x00\x00\x00\x00\x00'
p1122
tp1123
Rp1124
sg28
I7
sg29
I12
sg30
I0
sg31
I344
ssS'Steven R. Majewski'
p1125
(dp1126
g3
I0
sg4
I73
sg5
g55
sg7
I6
sg8
g35
sg10
I2138
sg11
g12
sg13
I114
sg14
I0
sg15
g16
sg17
g18
(g22
S'\xc8\x07\x00\x00\x00\x00\x00\x00'
p1127
tp1128
Rp1129
sg28
I17
sg29
I24
sg30
I0
sg31
I1750
ssS'Marcella Carollo'
p1130
(dp1131
g3
I5
sg4
I125
sg5
g48
sg7
I5
sg8
S'Munich - 1993'
p1132
sg10
I1392
sg11
g63
sg13
I66
sg14
I32
sg15
g16
sg17
g18
(g22
S'\xcc\x07\x00\x00\x00\x00\x00\x00'
p1133
tp1134
Rp1135
sg28
I8
sg29
I19
sg30
I0
sg31
I1066
ssS'Daniel Fabrycky'
p1136
(dp1137
g3
I1
sg4
I108
sg5
Fnan
sg7
I2
sg8
g215
sg10
I874
sg11
g12
sg13
I59
sg14
I3
sg15
g133
sg17
g18
(g22
S'\xd7\x07\x00\x00\x00\x00\x00\x00'
p1138
tp1139
Rp1140
sg28
I2
sg29
I9
sg30
I0
sg31
I438
ssS'Philipp Moesta'
p1141
(dp1142
g3
I5
sg4
I17
sg5
g667
sg7
I0
sg8
Fnan
sg10
I0
sg11
g12
sg13
I35
sg14
I84
sg15
g42
sg17
g18
(g22
S'\xdf\x07\x00\x00\x00\x00\x00\x00'
p1143
tp1144
Rp1145
sg28
I0
sg29
I7
sg30
I0
sg31
I289
ssS'Emily Levesque'
p1146
(dp1147
g3
I5
sg4
I290
sg5
g197
sg7
I5
sg8
Fnan
sg10
I331
sg11
g63
sg13
I94
sg14
I125
sg15
g42
sg17
g18
(g22
S'\xda\x07\x00\x00\x00\x00\x00\x00'
p1148
tp1149
Rp1150
sg28
I4
sg29
I24
sg30
I0
sg31
I1611
ssS'Markus Boettcher'
p1151
(dp1152
g3
I16
sg4
I176
sg5
S'Rice University'
p1153
sg7
I14
sg8
Fnan
sg10
I1513
sg11
g12
sg13
I367
sg14
I44
sg15
g42
sg17
g18
(g22
S'\xcf\x07\x00\x00\x00\x00\x00\x00'
p1154
tp1155
Rp1156
sg28
I31
sg29
I74
sg30
I0
sg31
I2056
ssS'Sean G. Ryan'
p1157
(dp1158
g3
I4
sg4
I101
sg5
g81
sg7
I3
sg8
g835
sg10
I2138
sg11
g12
sg13
I50
sg14
I9
sg15
g16
sg17
g18
(g22
S'\xc7\x07\x00\x00\x00\x00\x00\x00'
p1159
tp1160
Rp1161
sg28
I21
sg29
I31
sg30
I0
sg31
I1565
ssS'Peter Jonker'
p1162
(dp1163
g3
I11
sg4
I105
sg5
g169
sg7
I7
sg8
Fnan
sg10
I738
sg11
g12
sg13
I193
sg14
I88
sg15
g42
sg17
g18
(g22
S'\xd3\x07\x00\x00\x00\x00\x00\x00'
p1164
tp1165
Rp1166
sg28
I14
sg29
I37
sg30
I0
sg31
I1644
ssS'Ruobing Dong'
p1167
(dp1168
g3
I11
sg4
I144
sg5
g75
sg7
I6
sg8
S'Princeton University - 2013'
p1169
sg10
I0
sg11
g12
sg13
I145
sg14
I100
sg15
g16
sg17
g18
(g22
S'\xdd\x07\x00\x00\x00\x00\x00\x00'
p1170
tp1171
Rp1172
sg28
I0
sg29
I19
sg30
I0
sg31
I1083
ssS'Matthew Penny'
p1173
(dp1174
g3
I3
sg4
I24
sg5
Fnan
sg7
I0
sg8
S'Ohio State University'
p1175
sg10
I0
sg11
g12
sg13
I17
sg14
I21
sg15
g133
sg17
g18
(g22
S'\xde\x07\x00\x00\x00\x00\x00\x00'
p1176
tp1177
Rp1178
sg28
I0
sg29
I4
sg30
I0
sg31
I276
ssS'Mauro Giavalisco'
p1179
(dp1180
g3
I4
sg4
I78
sg5
g55
sg7
I3
sg8
S'Rome - 1992'
p1181
sg10
I2513
sg11
g12
sg13
I111
sg14
I11
sg15
g16
sg17
g18
(g22
S'\xcb\x07\x00\x00\x00\x00\x00\x00'
p1182
tp1183
Rp1184
sg28
I7
sg29
I16
sg30
I0
sg31
I883
ssS'Michael Eracleous'
p1185
(dp1186
g3
I6
sg4
I135
sg5
g667
sg7
I3
sg8
S'Columbia University - 1992'
p1187
sg10
I1297
sg11
g12
sg13
I46
sg14
I41
sg15
g16
sg17
g18
(g22
S'\xcb\x07\x00\x00\x00\x00\x00\x00'
p1188
tp1189
Rp1190
sg28
I11
sg29
I24
sg30
I0
sg31
I1485
ssS'Anna Barnacka'
p1191
(dp1192
g3
I7
sg4
I9
sg5
g112
sg7
I0
sg8
Fnan
sg10
I0
sg11
g63
sg13
I20
sg14
I30
sg15
g42
sg17
g18
(g22
S'\xdf\x07\x00\x00\x00\x00\x00\x00'
p1193
tp1194
Rp1195
sg28
I0
sg29
I9
sg30
I0
sg31
I446
ssS'Daniel Siegel'
p1196
(dp1197
g3
I11
sg4
I0
sg5
Fnan
sg7
I0
sg8
Fnan
sg10
I0
sg11
g12
sg13
I25
sg14
I154
sg15
g42
sg17
g18
(g22
S'\xe0\x07\x00\x00\x00\x00\x00\x00'
p1198
tp1199
Rp1200
sg28
I0
sg29
I13
sg30
I0
sg31
I493
ssS'Sam Halverson'
p1201
(dp1202
g3
I3
sg4
I0
sg5
Fnan
sg7
I0
sg8
S'UPenn'
p1203
sg10
I0
sg11
g12
sg13
I22
sg14
I10
sg15
g133
sg17
g18
(g22
S'\xe0\x07\x00\x00\x00\x00\x00\x00'
p1204
tp1205
Rp1206
sg28
I0
sg29
I3
sg30
I0
sg31
I96
ssS'Matthew McQuinn'
p1207
(dp1208
g3
I6
sg4
I199
sg5
g514
sg7
I5
sg8
Fnan
sg10
I673
sg11
g12
sg13
I45
sg14
I185
sg15
g42
sg17
g18
(g22
S'\xd9\x07\x00\x00\x00\x00\x00\x00'
p1209
tp1210
Rp1211
sg28
I6
sg29
I23
sg30
I0
sg31
I1281
ssS'Brant Robertson'
p1212
(dp1213
g3
I12
sg4
I384
sg5
g261
sg7
I4
sg8
g408
sg10
I888
sg11
Fnan
sg13
I70
sg14
I510
sg15
g16
sg17
g18
(g22
S'\xd9\x07\x00\x00\x00\x00\x00\x00'
p1214
tp1215
Rp1216
sg28
I3
sg29
I23
sg30
I0
sg31
I1856
ssS'Tommaso Treu'
p1217
(dp1218
g3
I8
sg4
I254
sg5
S'University of California Los Angles'
p1219
sg7
I5
sg8
S'Pisa/Space Telescope Science Institute 2001'
p1220
sg10
I1887
sg11
g12
sg13
I152
sg14
I100
sg15
g16
sg17
g18
(g22
S'\xd3\x07\x00\x00\x00\x00\x00\x00'
p1221
tp1222
Rp1223
sg28
I11
sg29
I28
sg30
I0
sg31
I1722
ssS'Rebecca Martin'
p1224
(dp1225
g3
I54
sg4
I222
sg5
Fnan
sg7
I10
sg8
S'University of Colorado'
p1226
sg10
I39
sg11
g63
sg13
I111
sg14
I818
sg15
g133
sg17
g18
(g22
S'\xdc\x07\x00\x00\x00\x00\x00\x00'
p1227
tp1228
Rp1229
sg28
I0
sg29
I70
sg30
I0
sg31
I1958
ssS'Matthew Kistler'
p1230
(dp1231
g3
I4
sg4
I100
sg5
S'Lawrence Berkeley Laboratory'
p1232
sg7
I1
sg8
Fnan
sg10
I160
sg11
g12
sg13
I21
sg14
I84
sg15
g42
sg17
g18
(g22
S'\xda\x07\x00\x00\x00\x00\x00\x00'
p1233
tp1234
Rp1235
sg28
I1
sg29
I10
sg30
I0
sg31
I963
ssS'Marla Geha'
p1236
(dp1237
g3
I2
sg4
I71
sg5
g922
sg7
I1
sg8
S'University of California Santa Cruz 2003'
p1238
sg10
I814
sg11
g63
sg13
I82
sg14
I53
sg15
g16
sg17
g18
(g22
S'\xd3\x07\x00\x00\x00\x00\x00\x00'
p1239
tp1240
Rp1241
sg28
I6
sg29
I14
sg30
I0
sg31
I676
ssS'Stephen Zepf'
p1242
(dp1243
g3
I5
sg4
I86
sg5
g667
sg7
I3
sg8
S'The Johns Hopkins University'
p1244
sg10
I1169
sg11
g12
sg13
I47
sg14
I24
sg15
g16
sg17
g18
(g22
S'\xc9\x07\x00\x00\x00\x00\x00\x00'
p1245
tp1246
Rp1247
sg28
I11
sg29
I23
sg30
I0
sg31
I715
ssS'J. Stuart Wyithe'
p1248
(dp1249
g3
I10
sg4
I224
sg5
g151
sg7
I14
sg8
S'Melbourne 2001'
p1250
sg10
I2279
sg11
g12
sg13
I93
sg14
I57
sg15
g16
sg17
g18
(g22
S'\xd1\x07\x00\x00\x00\x00\x00\x00'
p1251
tp1252
Rp1253
sg28
I36
sg29
I68
sg30
I0
sg31
I2686
ssS'Suvi Gezari'
p1254
(dp1255
g3
I7
sg4
I111
sg5
g48
sg7
I3
sg8
S'Columbia University - 2005'
p1256
sg10
I519
sg11
g63
sg13
I203
sg14
I78
sg15
g16
sg17
g18
(g22
S'\xd8\x07\x00\x00\x00\x00\x00\x00'
p1257
tp1258
Rp1259
sg28
I4
sg29
I16
sg30
I0
sg31
I753
ssS'Andisheh Mahdavi'
p1260
(dp1261
g3
I6
sg4
I64
sg5
g176
sg7
I0
sg8
Fnan
sg10
I686
sg11
g12
sg13
I47
sg14
I43
sg15
g42
sg17
g18
(g22
S'\xd1\x07\x00\x00\x00\x00\x00\x00'
p1262
tp1263
Rp1264
sg28
I8
sg29
I18
sg30
I0
sg31
I808
ssS'Andrey Kravtsov'
p1265
(dp1266
g3
I3
sg4
I167
sg5
S'The Ohio State University'
p1267
sg7
I1
sg8
S'New Mexico State University - 1999'
p1268
sg10
I2863
sg11
g12
sg13
I24
sg14
I26
sg15
g16
sg17
g18
(g22
S'\xcf\x07\x00\x00\x00\x00\x00\x00'
p1269
tp1270
Rp1271
sg28
I9
sg29
I16
sg30
I0
sg31
I1243
ssS'Lauren Ilsedore Cleeves'
p1272
(dp1273
g3
I5
sg4
I15
sg5
g169
sg7
I2
sg8
S'University of Michigan - 2015'
p1274
sg10
I0
sg11
g63
sg13
I31
sg14
I45
sg15
g16
sg17
g18
(g22
S'\xdf\x07\x00\x00\x00\x00\x00\x00'
p1275
tp1276
Rp1277
sg28
I0
sg29
I9
sg30
I0
sg31
I694
ssS'James Owen'
p1278
(dp1279
g3
I20
sg4
I264
sg5
g335
sg7
I7
sg8
g383
sg10
I0
sg11
g12
sg13
I42
sg14
I625
sg15
g16
sg17
g18
(g22
S'\xde\x07\x00\x00\x00\x00\x00\x00'
p1280
tp1281
Rp1282
sg28
I0
sg29
I32
sg30
I0
sg31
I1440
ssS'Brooke Simmons'
p1283
(dp1284
g3
I6
sg4
I6
sg5
S'University of California San Diego'
p1285
sg7
I0
sg8
Fnan
sg10
I0
sg11
g63
sg13
I62
sg14
I68
sg15
g42
sg17
g18
(g22
S'\xdf\x07\x00\x00\x00\x00\x00\x00'
p1286
tp1287
Rp1288
sg28
I0
sg29
I6
sg30
I0
sg31
I422
ssS'Shea Garrison-Kimmel'
p1289
(dp1290
g3
I4
sg4
I43
sg5
g261
sg7
I0
sg8
Fnan
sg10
I0
sg11
g12
sg13
I14
sg14
I74
sg15
g42
sg17
g18
(g22
S'\xdf\x07\x00\x00\x00\x00\x00\x00'
p1291
tp1292
Rp1293
sg28
I0
sg29
I4
sg30
I0
sg31
I373
ssS'Rene Walterbos'
p1294
(dp1295
g3
I7
sg4
I44
sg5
S'New Mexico State University'
p1296
sg7
I1
sg8
S'Leiden Netherlands'
p1297
sg10
I601
sg11
g63
sg13
I12
sg14
I64
sg15
g16
sg17
g18
(g22
S'\xc6\x07\x00\x00\x00\x00\x00\x00'
p1298
tp1299
Rp1300
sg28
I4
sg29
I12
sg30
I0
sg31
I413
ssS'Keivan Stassun_'
p1301
(dp1302
g3
I3
sg4
I51
sg5
S'University of Wisconsin'
p1303
sg7
I2
sg8
S'University of Wisconsin - 2000'
p1304
sg10
I763
sg11
g12
sg13
I44
sg14
I17
sg15
g16
sg17
g18
(g22
S'\xd1\x07\x00\x00\x00\x00\x00\x00'
p1305
tp1306
Rp1307
sg28
I10
sg29
I18
sg30
I0
sg31
I817
ssS'Josiah Schwab'
p1308
(dp1309
g3
I6
sg4
I0
sg5
Fnan
sg7
I0
sg8
S'UCSC'
p1310
sg10
I0
sg11
g12
sg13
I16
sg14
I141
sg15
g16
sg17
g18
(g22
S'\xe0\x07\x00\x00\x00\x00\x00\x00'
p1311
tp1312
Rp1313
sg28
I0
sg29
I7
sg30
I0
sg31
I223
ssS'Alexander Tchekhovskoy'
p1314
(dp1315
g3
I8
sg4
I411
sg5
g75
sg7
I2
sg8
Fnan
sg10
I0
sg11
g12
sg13
I23
sg14
I293
sg15
g42
sg17
g18
(g22
S'\xdd\x07\x00\x00\x00\x00\x00\x00'
p1316
tp1317
Rp1318
sg28
I0
sg29
I12
sg30
I0
sg31
I809
ssS'Andrew Fruchter'
p1319
(dp1320
g3
I4
sg4
I98
sg5
g667
sg7
I2
sg8
g794
sg10
I2035
sg11
g12
sg13
I119
sg14
I65
sg15
g16
sg17
g18
(g22
S'\xc6\x07\x00\x00\x00\x00\x00\x00'
p1321
tp1322
Rp1323
sg28
I13
sg29
I22
sg30
I0
sg31
I528
ssS'John Fregeau'
p1324
(dp1325
g3
I6
sg4
I82
sg5
S'Northwestern University (yr 1)'
p1326
sg7
I3
sg8
Fnan
sg10
I240
sg11
g12
sg13
I21
sg14
I96
sg15
g42
sg17
g18
(g22
S'\xd7\x07\x00\x00\x00\x00\x00\x00'
p1327
tp1328
Rp1329
sg28
I0
sg29
I10
sg30
I0
sg31
I455
ssS'Pawel Artymowicz'
p1330
(dp1331
g3
I5
sg4
I34
sg5
g34
sg7
I3
sg8
S'University of Warsaw'
p1332
sg10
I2018
sg11
g12
sg13
I15
sg14
I6
sg15
g16
sg17
g18
(g22
S'\xc6\x07\x00\x00\x00\x00\x00\x00'
p1333
tp1334
Rp1335
sg28
I9
sg29
I21
sg30
I0
sg31
I602
ssS'David Strickland'
p1336
(dp1337
g3
I24
sg4
I203
sg5
g364
sg7
I5
sg8
Fnan
sg10
I1579
sg11
g12
sg13
I116
sg14
I547
sg15
g42
sg17
g18
(g22
S'\xd0\x07\x00\x00\x00\x00\x00\x00'
p1338
tp1339
Rp1340
sg28
I9
sg29
I41
sg30
I0
sg31
I1955
ssS'Henry Ferguson'
p1341
(dp1342
g3
I10
sg4
I131
sg5
g281
sg7
I3
sg8
g1244
sg10
I1630
sg11
g12
sg13
I50
sg14
I69
sg15
g16
sg17
g18
(g22
S'\xc9\x07\x00\x00\x00\x00\x00\x00'
p1343
tp1344
Rp1345
sg28
I8
sg29
I23
sg30
I0
sg31
I1316
ssS'Jacob Simon'
p1346
(dp1347
g3
I52
sg4
I622
sg5
Fnan
sg7
I6
sg8
S'Southwest Research Institute'
p1348
sg10
I0
sg11
g12
sg13
I230
sg14
I1608
sg15
g133
sg17
g18
(g22
S'\xdd\x07\x00\x00\x00\x00\x00\x00'
p1349
tp1350
Rp1351
sg28
I0
sg29
I61
sg30
I0
sg31
I2690
ssS'Fabienne Bastien'
p1352
(dp1353
g3
I3
sg4
I33
sg5
g377
sg7
I1
sg8
S'Vanderbilt University - 2014'
p1354
sg10
I0
sg11
g63
sg13
I21
sg14
I3
sg15
g16
sg17
g18
(g22
S'\xde\x07\x00\x00\x00\x00\x00\x00'
p1355
tp1356
Rp1357
sg28
I0
sg29
I7
sg30
I0
sg31
I203
ssS'Amy Barger'
p1358
(dp1359
g3
I4
sg4
I487
sg5
S'Fellow at Large'
p1360
sg7
I4
sg8
Fnan
sg10
I2229
sg11
g63
sg13
I109
sg14
I65
sg15
g42
sg17
g18
(g22
S'\xcf\x07\x00\x00\x00\x00\x00\x00'
p1361
tp1362
Rp1363
sg28
I13
sg29
I26
sg30
I0
sg31
I1470
ssS'Marijn Franx'
p1364
(dp1365
g3
I7
sg4
I142
sg5
g151
sg7
I3
sg8
g1297
sg10
I1926
sg11
g12
sg13
I31
sg14
I59
sg15
g16
sg17
g18
(g22
S'\xc7\x07\x00\x00\x00\x00\x00\x00'
p1366
tp1367
Rp1368
sg28
I5
sg29
I17
sg30
I0
sg31
I516
ssS'Kevin Schawinski'
p1369
(dp1370
g3
I4
sg4
I301
sg5
g6
sg7
I6
sg8
Fnan
sg10
I610
sg11
g12
sg13
I183
sg14
I83
sg15
g42
sg17
g18
(g22
S'\xd9\x07\x00\x00\x00\x00\x00\x00'
p1371
tp1372
Rp1373
sg28
I2
sg29
I17
sg30
I0
sg31
I1037
ssS'Michael Vogeley'
p1374
(dp1375
g3
I4
sg4
I60
sg5
S'Space Telescope Science Institute (yr 1-2) Princeton University (yr 3)'
p1376
sg7
I1
sg8
g62
sg10
I205
sg11
g12
sg13
I10
sg14
I101
sg15
g16
sg17
g18
(g22
S'\xcb\x07\x00\x00\x00\x00\x00\x00'
p1377
tp1378
Rp1379
sg28
I0
sg29
I5
sg30
I0
sg31
I167
ssS'Mark Voit'
p1380
(dp1381
g3
I0
sg4
I0
sg5
g48
sg7
I0
sg8
g1226
sg10
I0
sg11
g12
sg13
I0
sg14
I0
sg15
g16
sg17
g18
(g22
S'\xc9\x07\x00\x00\x00\x00\x00\x00'
p1382
tp1383
Rp1384
sg28
I0
sg29
I0
sg30
I0
sg31
I0
ssS'Roberto Sanchis Ojeda'
p1385
(dp1386
g3
I6
sg4
I154
sg5
Fnan
sg7
I2
sg8
S'UC Berkeley'
p1387
sg10
I0
sg11
g12
sg13
I105
sg14
I122
sg15
g133
sg17
g18
(g22
S'\xde\x07\x00\x00\x00\x00\x00\x00'
p1388
tp1389
Rp1390
sg28
I0
sg29
I10
sg30
I0
sg31
I450
ssS'Sean Couch'
p1391
(dp1392
g3
I3
sg4
I34
sg5
g748
sg7
I4
sg8
S'University of Texas Austin 2010'
p1393
sg10
I199
sg11
g12
sg13
I15
sg14
I21
sg15
g16
sg17
g18
(g22
S'\xdb\x07\x00\x00\x00\x00\x00\x00'
p1394
tp1395
Rp1396
sg28
I2
sg29
I11
sg30
I0
sg31
I593
ssS'Amber Miller'
p1397
(dp1398
g3
I39
sg4
I118
sg5
g748
sg7
I1
sg8
S'Princeton University - 2000'
p1399
sg10
I541
sg11
g63
sg13
I180
sg14
I107
sg15
g16
sg17
g18
(g22
S'\xd0\x07\x00\x00\x00\x00\x00\x00'
p1400
tp1401
Rp1402
sg28
I18
sg29
I60
sg30
I0
sg31
I949
ssS'Michael W. Regan'
p1403
(dp1404
g3
I5
sg4
I62
sg5
S'Dept. Terrest. Magn.'
p1405
sg7
I2
sg8
S'University of Maryland - 1996'
p1406
sg10
I915
sg11
g12
sg13
I89
sg14
I31
sg15
g16
sg17
g18
(g22
S'\xcd\x07\x00\x00\x00\x00\x00\x00'
p1407
tp1408
Rp1409
sg28
I7
sg29
I17
sg30
I0
sg31
I535
ssS'Eric Pfahl'
p1410
(dp1411
g3
I1
sg4
I62
sg5
g112
sg7
I2
sg8
Fnan
sg10
I484
sg11
g12
sg13
I18
sg14
I3
sg15
g42
sg17
g18
(g22
S'\xd2\x07\x00\x00\x00\x00\x00\x00'
p1412
tp1413
Rp1414
sg28
I3
sg29
I13
sg30
I0
sg31
I731
ssS'Ruslan Belikov'
p1415
(dp1416
g3
I0
sg4
I0
sg5
Fnan
sg7
I1
sg8
g794
sg10
I15
sg11
g12
sg13
I2
sg14
I0
sg15
g133
sg17
g18
(g22
S'\xd5\x07\x00\x00\x00\x00\x00\x00'
p1417
tp1418
Rp1419
sg28
I0
sg29
I1
sg30
I0
sg31
I17
ssS'Douglas Finkbeiner'
p1420
(dp1421
g3
I3
sg4
I73
sg5
g667
sg7
I1
sg8
S'University of California Berkeley - 1999'
p1422
sg10
I1665
sg11
g12
sg13
I118
sg14
I4
sg15
g16
sg17
g18
(g22
S'\xd0\x07\x00\x00\x00\x00\x00\x00'
p1423
tp1424
Rp1425
sg28
I11
sg29
I17
sg30
I0
sg31
I695
ssS'Jifeng Liu'
p1426
(dp1427
g3
I76
sg4
I288
sg5
g151
sg7
I28
sg8
Fnan
sg10
I2283
sg11
g12
sg13
I809
sg14
I360
sg15
g42
sg17
g18
(g22
S'\xd6\x07\x00\x00\x00\x00\x00\x00'
p1428
tp1429
Rp1430
sg28
I141
sg29
I270
sg30
I0
sg31
I6464
ssS'Kenneth M. Lanzetta'
p1431
(dp1432
g3
I5
sg4
I137
sg5
g1285
sg7
I4
sg8
S'University of Pittsburgh'
p1433
sg10
I1560
sg11
g12
sg13
I38
sg14
I36
sg15
g16
sg17
g18
(g22
S'\xc7\x07\x00\x00\x00\x00\x00\x00'
p1434
tp1435
Rp1436
sg28
I8
sg29
I20
sg30
I0
sg31
I510
ssS'Philip Hinz'
p1437
(dp1438
g3
I1
sg4
I14
sg5
Fnan
sg7
I0
sg8
S'Steward Observatory, University of Arizona'
p1439
sg10
I107
sg11
g12
sg13
I22
sg14
I9
sg15
g133
sg17
g18
(g22
S'\xd1\x07\x00\x00\x00\x00\x00\x00'
p1440
tp1441
Rp1442
sg28
I2
sg29
I5
sg30
I0
sg31
I152
ssS'Lia Corrales'
p1443
(dp1444
g3
I5
sg4
I0
sg5
Fnan
sg7
I0
sg8
Fnan
sg10
I0
sg11
g63
sg13
I7
sg14
I36
sg15
g42
sg17
g18
(g22
S'\xe0\x07\x00\x00\x00\x00\x00\x00'
p1445
tp1446
Rp1447
sg28
I0
sg29
I6
sg30
I0
sg31
I267
ssS'Bence Kocsis'
p1448
(dp1449
g3
I7
sg4
I88
sg5
g112
sg7
I3
sg8
Fnan
sg10
I244
sg11
g12
sg13
I29
sg14
I78
sg15
g42
sg17
g18
(g22
S'\xd9\x07\x00\x00\x00\x00\x00\x00'
p1450
tp1451
Rp1452
sg28
I3
sg29
I18
sg30
I0
sg31
I1277
ssS'Katja Poppenhaeger'
p1453
(dp1454
g3
I9
sg4
I111
sg5
Fnan
sg7
I2
sg8
g215
sg10
I0
sg11
g63
sg13
I46
sg14
I66
sg15
g133
sg17
g18
(g22
S'\xdd\x07\x00\x00\x00\x00\x00\x00'
p1455
tp1456
Rp1457
sg28
I0
sg29
I13
sg30
I0
sg31
I380
ssS'Gurtina Besla'
p1458
(dp1459
g3
I4
sg4
I134
sg5
g305
sg7
I2
sg8
g877
sg10
I106
sg11
g63
sg13
I25
sg14
I111
sg15
g16
sg17
g18
(g22
S'\xdb\x07\x00\x00\x00\x00\x00\x00'
p1460
tp1461
Rp1462
sg28
I0
sg29
I7
sg30
I0
sg31
I527
ssS'Buell Jannuzi'
p1463
(dp1464
g3
I4
sg4
I43
sg5
g447
sg7
I3
sg8
g490
sg10
I474
sg11
g12
sg13
I44
sg14
I26
sg15
g16
sg17
g18
(g22
S'\xc9\x07\x00\x00\x00\x00\x00\x00'
p1465
tp1466
Rp1467
sg28
I3
sg29
I13
sg30
I0
sg31
I390
ssS'Morgan MacLeod'
p1468
(dp1469
g3
I5
sg4
I0
sg5
Fnan
sg7
I0
sg8
Fnan
sg10
I0
sg11
g12
sg13
I17
sg14
I85
sg15
g42
sg17
g18
(g22
S'\xe0\x07\x00\x00\x00\x00\x00\x00'
p1470
tp1471
Rp1472
sg28
I0
sg29
I7
sg30
I0
sg31
I805
ssS'Carlos Badenes'
p1473
(dp1474
g3
I6
sg4
I65
sg5
S'Rutgers University'
p1475
sg7
I3
sg8
Fnan
sg10
I484
sg11
g12
sg13
I38
sg14
I24
sg15
g42
sg17
g18
(g22
S'\xd6\x07\x00\x00\x00\x00\x00\x00'
p1476
tp1477
Rp1478
sg28
I5
sg29
I17
sg30
I0
sg31
I831
ssS'Julie Hlavacek-Larrondo'
p1479
(dp1480
g3
I4
sg4
I59
sg5
g41
sg7
I2
sg8
Fnan
sg10
I16
sg11
g12
sg13
I59
sg14
I5
sg15
g42
sg17
g18
(g22
S'\xdc\x07\x00\x00\x00\x00\x00\x00'
p1481
tp1482
Rp1483
sg28
I0
sg29
I9
sg30
I0
sg31
I690
ssS'Jurg Diemand'
p1484
(dp1485
g3
I6
sg4
I441
sg5
g34
sg7
I5
sg8
S'University of Zurich 2004'
p1486
sg10
I1362
sg11
g12
sg13
I31
sg14
I148
sg15
g16
sg17
g18
(g22
S'\xd6\x07\x00\x00\x00\x00\x00\x00'
p1487
tp1488
Rp1489
sg28
I1
sg29
I13
sg30
I0
sg31
I599
ssS'Pier-Emmanuel Tremblay'
p1490
(dp1491
g3
I11
sg4
I207
sg5
g281
sg7
I5
sg8
S'University of Montreal - 2011'
p1492
sg10
I0
sg11
g12
sg13
I68
sg14
I176
sg15
g16
sg17
g18
(g22
S'\xdd\x07\x00\x00\x00\x00\x00\x00'
p1493
tp1494
Rp1495
sg28
I0
sg29
I19
sg30
I0
sg31
I858
ssS'Julio Chaname'
p1496
(dp1497
g3
I5
sg4
I50
sg5
S'Carnegie DTM'
p1498
sg7
I0
sg8
S'The Ohio State University - 2005'
p1499
sg10
I79
sg11
g12
sg13
I11
sg14
I45
sg15
g16
sg17
g18
(g22
S'\xd8\x07\x00\x00\x00\x00\x00\x00'
p1500
tp1501
Rp1502
sg28
I1
sg29
I7
sg30
I0
sg31
I466
ssS'Edward Cackett'
p1503
(dp1504
g3
I6
sg4
I127
sg5
S'University of Michigan'
p1505
sg7
I5
sg8
Fnan
sg10
I454
sg11
g12
sg13
I113
sg14
I28
sg15
g42
sg17
g18
(g22
S'\xd8\x07\x00\x00\x00\x00\x00\x00'
p1506
tp1507
Rp1508
sg28
I7
sg29
I22
sg30
I0
sg31
I1074
ssS'Sean Brittain'
p1509
(dp1510
g3
I2
sg4
I44
sg5
Fnan
sg7
I1
sg8
S'National Optical Astronomical Observatories'
p1511
sg10
I267
sg11
g12
sg13
I38
sg14
I12
sg15
g133
sg17
g18
(g22
S'\xd4\x07\x00\x00\x00\x00\x00\x00'
p1512
tp1513
Rp1514
sg28
I5
sg29
I12
sg30
I0
sg31
I616
ssS'Yashar Hezaveh'
p1515
(dp1516
g3
I6
sg4
I11
sg5
g41
sg7
I0
sg8
S'McGill University - 2013'
p1517
sg10
I0
sg11
g12
sg13
I80
sg14
I75
sg15
g16
sg17
g18
(g22
S'\xdf\x07\x00\x00\x00\x00\x00\x00'
p1518
tp1519
Rp1520
sg28
I0
sg29
I7
sg30
I0
sg31
I318
ssS'Roelof de Jong'
p1521
(dp1522
g3
I10
sg4
I223
sg5
g95
sg7
I2
sg8
S'Groningen 1995'
p1523
sg10
I918
sg11
g12
sg13
I27
sg14
I133
sg15
g16
sg17
g18
(g22
S'\xce\x07\x00\x00\x00\x00\x00\x00'
p1524
tp1525
Rp1526
sg28
I5
sg29
I17
sg30
I0
sg31
I523
ssS'Xuening Bai'
p1527
(dp1528
g3
I15
sg4
I333
sg5
g169
sg7
I14
sg8
S'Princeton University - 2012'
p1529
sg10
I98
sg11
g12
sg13
I70
sg14
I114
sg15
g16
sg17
g18
(g22
S'\xdc\x07\x00\x00\x00\x00\x00\x00'
p1530
tp1531
Rp1532
sg28
I1
sg29
I35
sg30
I0
sg31
I1617
ssS'Frank C. van den Bosch'
p1533
(dp1534
g3
I0
sg4
I0
sg5
g761
sg7
I0
sg8
S'Leiden 1997'
p1535
sg10
I0
sg11
g12
sg13
I0
sg14
I0
sg15
g16
sg17
g18
(g22
S'\xcd\x07\x00\x00\x00\x00\x00\x00'
p1536
tp1537
Rp1538
sg28
I0
sg29
I0
sg30
I0
sg31
I0
ssS'Michael Line'
p1539
(dp1540
g3
I13
sg4
I30
sg5
S'NASA Ames Research Center'
p1541
sg7
I0
sg8
S'California Institute of Technology - 2013'
p1542
sg10
I0
sg11
g12
sg13
I39
sg14
I154
sg15
g16
sg17
g18
(g22
S'\xdf\x07\x00\x00\x00\x00\x00\x00'
p1543
tp1544
Rp1545
sg28
I0
sg29
I14
sg30
I0
sg31
I603
ssS'Anne Medling'
p1546
(dp1547
g3
I6
sg4
I0
sg5
Fnan
sg7
I0
sg8
Fnan
sg10
I0
sg11
g63
sg13
I37
sg14
I36
sg15
g42
sg17
g18
(g22
S'\xe0\x07\x00\x00\x00\x00\x00\x00'
p1548
tp1549
Rp1550
sg28
I0
sg29
I6
sg30
I0
sg31
I414
ssS'Caroline Morley'
p1551
(dp1552
g3
I9
sg4
I0
sg5
Fnan
sg7
I0
sg8
g441
sg10
I0
sg11
g63
sg13
I30
sg14
I235
sg15
g133
sg17
g18
(g22
S'\xe0\x07\x00\x00\x00\x00\x00\x00'
p1553
tp1554
Rp1555
sg28
I0
sg29
I9
sg30
I0
sg31
I618
ssS'Grant Tremblay'
p1556
(dp1557
g3
I8
sg4
I34
sg5
g6
sg7
I1
sg8
Fnan
sg10
I0
sg11
g12
sg13
I110
sg14
I55
sg15
g42
sg17
g18
(g22
S'\xde\x07\x00\x00\x00\x00\x00\x00'
p1558
tp1559
Rp1560
sg28
I0
sg29
I10
sg30
I0
sg31
I711
ssS'Simona Giacintucci'
p1561
(dp1562
g3
I10
sg4
I77
sg5
g163
sg7
I4
sg8
Fnan
sg10
I115
sg11
g63
sg13
I115
sg14
I71
sg15
g42
sg17
g18
(g22
S'\xda\x07\x00\x00\x00\x00\x00\x00'
p1563
tp1564
Rp1565
sg28
I2
sg29
I19
sg30
I0
sg31
I884
ssS'Inese Ivans'
p1566
(dp1567
g3
I3
sg4
I68
sg5
g261
sg7
I2
sg8
S'University of Texas - 2002'
p1568
sg10
I518
sg11
g63
sg13
I37
sg14
I16
sg15
g16
sg17
g18
(g22
S'\xd2\x07\x00\x00\x00\x00\x00\x00'
p1569
tp1570
Rp1571
sg28
I1
sg29
I7
sg30
I0
sg31
I607
ssS'Chris Mihos'
p1572
(dp1573
g3
I0
sg4
I0
sg5
S'The Johns Hopkins University (yr 1-2) Case Western University (yr 3)'
p1574
sg7
I0
sg8
S'University of Michigan - 1992'
p1575
sg10
I41
sg11
g12
sg13
I0
sg14
I0
sg15
g16
sg17
g18
(g22
S'\xcb\x07\x00\x00\x00\x00\x00\x00'
p1576
tp1577
Rp1578
sg28
I1
sg29
I1
sg30
I0
sg31
I17
ssS'Sam Gralla'
p1579
(dp1580
g3
I4
sg4
I75
sg5
S'University of Maryland College Park'
p1581
sg7
I4
sg8
Fnan
sg10
I101
sg11
g12
sg13
I15
sg14
I50
sg15
g42
sg17
g18
(g22
S'\xdb\x07\x00\x00\x00\x00\x00\x00'
p1582
tp1583
Rp1584
sg28
I3
sg29
I16
sg30
I0
sg31
I388
ssS'David R. Law'
p1585
(dp1586
g3
I6
sg4
I219
sg5
g531
sg7
I5
sg8
S'California Institute of Technology - 2008'
p1587
sg10
I748
sg11
g12
sg13
I65
sg14
I98
sg15
g16
sg17
g18
(g22
S'\xd8\x07\x00\x00\x00\x00\x00\x00'
p1588
tp1589
Rp1590
sg28
I5
sg29
I17
sg30
I0
sg31
I1022
ssS'Jonathan Gagne'
p1591
(dp1592
g3
I4
sg4
I30
sg5
Fnan
sg7
I0
sg8
S'Carnegie Institute for Science'
p1593
sg10
I0
sg11
g12
sg13
I46
sg14
I23
sg15
g133
sg17
g18
(g22
S'\xdf\x07\x00\x00\x00\x00\x00\x00'
p1594
tp1595
Rp1596
sg28
I0
sg29
I7
sg30
I0
sg31
I829
ssS'David Wilner'
p1597
(dp1598
g3
I7
sg4
I65
sg5
g151
sg7
I2
sg8
S'University of California Berkeley - 1993'
p1599
sg10
I856
sg11
g12
sg13
I50
sg14
I14
sg15
g16
sg17
g18
(g22
S'\xcc\x07\x00\x00\x00\x00\x00\x00'
p1600
tp1601
Rp1602
sg28
I11
sg29
I24
sg30
I0
sg31
I632
ssS'Jane Luu'
p1603
(dp1604
g3
I7
sg4
I51
sg5
g667
sg7
I4
sg8
g132
sg10
I987
sg11
g63
sg13
I24
sg14
I27
sg15
g16
sg17
g18
(g22
S'\xc8\x07\x00\x00\x00\x00\x00\x00'
p1605
tp1606
Rp1607
sg28
I10
sg29
I23
sg30
I0
sg31
I649
ssS'Mario Mateo'
p1608
(dp1609
g3
I16
sg4
I152
sg5
g55
sg7
I4
sg8
g288
sg10
I2924
sg11
g12
sg13
I63
sg14
I96
sg15
g16
sg17
g18
(g22
S'\xc6\x07\x00\x00\x00\x00\x00\x00'
p1610
tp1611
Rp1612
sg28
I11
sg29
I35
sg30
I0
sg31
I1834
ssS'Aleksander Sadowski'
p1613
(dp1614
g3
I11
sg4
I224
sg5
g69
sg7
I5
sg8
Fnan
sg10
I0
sg11
g12
sg13
I50
sg14
I131
sg15
g42
sg17
g18
(g22
S'\xde\x07\x00\x00\x00\x00\x00\x00'
p1615
tp1616
Rp1617
sg28
I0
sg29
I17
sg30
I0
sg31
I802
ssS'Mario Hamuy'
p1618
(dp1619
g3
I19
sg4
I322
sg5
g55
sg7
I5
sg8
S'University of Arizona - 2001'
p1620
sg10
I2159
sg11
g12
sg13
I266
sg14
I843
sg15
g16
sg17
g18
(g22
S'\xd1\x07\x00\x00\x00\x00\x00\x00'
p1621
tp1622
Rp1623
sg28
I3
sg29
I31
sg30
I0
sg31
I779
ssS'Joshua Peek'
p1624
(dp1625
g3
I11
sg4
I96
sg5
g305
sg7
I2
sg8
S'UCS'
p1626
sg10
I75
sg11
g12
sg13
I38
sg14
I114
sg15
g16
sg17
g18
(g22
S'\xdb\x07\x00\x00\x00\x00\x00\x00'
p1627
tp1628
Rp1629
sg28
I1
sg29
I16
sg30
I0
sg31
I494
ssS'Qingjuan Yu'
p1630
(dp1631
g3
I12
sg4
I244
sg5
g667
sg7
I6
sg8
S'Princeton University - 2002'
p1632
sg10
I966
sg11
g63
sg13
I31
sg14
I41
sg15
g16
sg17
g18
(g22
S'\xd3\x07\x00\x00\x00\x00\x00\x00'
p1633
tp1634
Rp1635
sg28
I8
sg29
I29
sg30
I0
sg31
I950
ssS'Lifan Wang'
p1636
(dp1637
g3
I19
sg4
I59
sg5
g81
sg7
I11
sg8
S'ESO/USTC - 1993'
p1638
sg10
I4773
sg11
g63
sg13
I653
sg14
I78
sg15
g16
sg17
g18
(g22
S'\xcc\x07\x00\x00\x00\x00\x00\x00'
p1639
tp1640
Rp1641
sg28
I140
sg29
I178
sg30
I0
sg31
I4947
ssS'Brad Hansen'
p1642
(dp1643
g3
I7
sg4
I177
sg5
g228
sg7
I3
sg8
S'California Institute of Technology - 1996'
p1644
sg10
I1781
sg11
g12
sg13
I65
sg14
I31
sg15
g16
sg17
g18
(g22
S'\xcf\x07\x00\x00\x00\x00\x00\x00'
p1645
tp1646
Rp1647
sg28
I25
sg29
I40
sg30
I0
sg31
I2558
ssS'Michael Cooper'
p1648
(dp1649
g3
I16
sg4
I251
sg5
S'University of California Irvine'
p1650
sg7
I3
sg8
S'University of California Berkeley - 2007'
p1651
sg10
I288
sg11
g12
sg13
I109
sg14
I586
sg15
g16
sg17
g18
(g22
S'\xda\x07\x00\x00\x00\x00\x00\x00'
p1652
tp1653
Rp1654
sg28
I0
sg29
I22
sg30
I0
sg31
I1416
ssS'Ken Shen'
p1655
(dp1656
g3
I14
sg4
I138
sg5
g75
sg7
I2
sg8
Fnan
sg10
I143
sg11
g12
sg13
I42
sg14
I89
sg15
g42
sg17
g18
(g22
S'\xdb\x07\x00\x00\x00\x00\x00\x00'
p1657
tp1658
Rp1659
sg28
I2
sg29
I21
sg30
I0
sg31
I840
ssS'Cora Dvorkin'
p1660
(dp1661
g3
I9
sg4
I96
sg5
g112
sg7
I0
sg8
S'University of Chicago - 2011'
p1662
sg10
I0
sg11
g63
sg13
I17
sg14
I157
sg15
g16
sg17
g18
(g22
S'\xde\x07\x00\x00\x00\x00\x00\x00'
p1663
tp1664
Rp1665
sg28
I0
sg29
I11
sg30
I0
sg31
I388
ssS'Dominik A Riechers'
p1666
(dp1667
g3
I5
sg4
I92
sg5
g261
sg7
I4
sg8
S'Heidelberg 2007'
p1668
sg10
I852
sg11
g12
sg13
I248
sg14
I5
sg15
g16
sg17
g18
(g22
S'\xd7\x07\x00\x00\x00\x00\x00\x00'
p1669
tp1670
Rp1671
sg28
I11
sg29
I27
sg30
I0
sg31
I1087
ssS'Kristian Finlator'
p1672
(dp1673
g3
I4
sg4
I119
sg5
g525
sg7
I2
sg8
S'University of Arizona 2009'
p1674
sg10
I341
sg11
g12
sg13
I45
sg14
I118
sg15
g16
sg17
g18
(g22
S'\xd9\x07\x00\x00\x00\x00\x00\x00'
p1675
tp1676
Rp1677
sg28
I2
sg29
I12
sg30
I0
sg31
I915
ssS'Evehenii Gaburov'
p1678
(dp1679
g3
I6
sg4
I62
sg5
S'Northwestern University'
p1680
sg7
I1
sg8
S'Amsterdam NL 2008'
p1681
sg10
I35
sg11
g12
sg13
I12
sg14
I41
sg15
g16
sg17
g18
(g22
S'\xdb\x07\x00\x00\x00\x00\x00\x00'
p1682
tp1683
Rp1684
sg28
I0
sg29
I8
sg30
I0
sg31
I280
ssS'Maciej Konacki'
p1685
(dp1686
g3
I6
sg4
I8
sg5
Fnan
sg7
I1
sg8
g591
sg10
I787
sg11
g12
sg13
I41
sg14
I7
sg15
g133
sg17
g18
(g22
S'\xd0\x07\x00\x00\x00\x00\x00\x00'
p1687
tp1688
Rp1689
sg28
I8
sg29
I20
sg30
I0
sg31
I512
ssS'Lynne Hillenbrand'
p1690
(dp1691
g3
I2
sg4
I92
sg5
g667
sg7
I2
sg8
S'University of Massachusetts'
p1692
sg10
I2936
sg11
g63
sg13
I59
sg14
I27
sg15
g16
sg17
g18
(g22
S'\xca\x07\x00\x00\x00\x00\x00\x00'
p1693
tp1694
Rp1695
sg28
I13
sg29
I18
sg30
I0
sg31
I1270
ssS'Rudy Wijnands'
p1696
(dp1697
g3
I11
sg4
I299
sg5
g69
sg7
I8
sg8
Fnan
sg10
I1582
sg11
g12
sg13
I148
sg14
I124
sg15
g42
sg17
g18
(g22
S'\xcf\x07\x00\x00\x00\x00\x00\x00'
p1698
tp1699
Rp1700
sg28
I14
sg29
I47
sg30
I0
sg31
I1489
ssS'Brian Kern'
p1701
(dp1702
g3
I0
sg4
I23
sg5
Fnan
sg7
I1
sg8
g591
sg10
I85
sg11
g12
sg13
I9
sg14
I0
sg15
g133
sg17
g18
(g22
S'\xd2\x07\x00\x00\x00\x00\x00\x00'
p1703
tp1704
Rp1705
sg28
I0
sg29
I5
sg30
I0
sg31
I81
ssS'Enrico Ramirez-Ruiz'
p1706
(dp1707
g3
I10
sg4
I143
sg5
g335
sg7
I6
sg8
Fnan
sg10
I515
sg11
g12
sg13
I38
sg14
I116
sg15
g42
sg17
g18
(g22
S'\xd3\x07\x00\x00\x00\x00\x00\x00'
p1708
tp1709
Rp1710
sg28
I7
sg29
I25
sg30
I0
sg31
I928
ssS'Glenn van de Ven'
p1711
(dp1712
g3
I0
sg4
I0
sg5
g335
sg7
I0
sg8
S'Leiden 2005'
p1713
sg10
I0
sg11
g12
sg13
I0
sg14
I0
sg15
g16
sg17
g18
(g22
S'\xd6\x07\x00\x00\x00\x00\x00\x00'
p1714
tp1715
Rp1716
sg28
I0
sg29
I0
sg30
I0
sg31
I0
ssS'Max Tegmark'
p1717
(dp1718
g3
I15
sg4
I298
sg5
g447
sg7
I16
sg8
S'University of California Berkeley - 1994'
p1719
sg10
I9874
sg11
g12
sg13
I322
sg14
I36
sg15
g16
sg17
g18
(g22
S'\xcc\x07\x00\x00\x00\x00\x00\x00'
p1720
tp1721
Rp1722
sg28
I31
sg29
I72
sg30
I0
sg31
I3018
ssS'Adrian Liu'
p1723
(dp1724
g3
I15
sg4
I58
sg5
g667
sg7
I1
sg8
S'Massachusetts Institute of Technology - 2012'
p1725
sg10
I0
sg11
g12
sg13
I31
sg14
I287
sg15
g16
sg17
g18
(g22
S'\xdf\x07\x00\x00\x00\x00\x00\x00'
p1726
tp1727
Rp1728
sg28
I0
sg29
I17
sg30
I0
sg31
I631
ssS'Mark Vogelsberger'
p1729
(dp1730
g3
I5
sg4
I330
sg5
S'Harvard College Observatories'
p1731
sg7
I6
sg8
S'MPI/LMU Germany - 2010'
p1732
sg10
I181
sg11
g12
sg13
I54
sg14
I122
sg15
g16
sg17
g18
(g22
S'\xdc\x07\x00\x00\x00\x00\x00\x00'
p1733
tp1734
Rp1735
sg28
I0
sg29
I13
sg30
I0
sg31
I1016
ssS'Erik Tollerud'
p1736
(dp1737
g3
I4
sg4
I154
sg5
g6
sg7
I2
sg8
S'University of California Irvine - 2012'
p1738
sg10
I28
sg11
g12
sg13
I37
sg14
I109
sg15
g16
sg17
g18
(g22
S'\xdc\x07\x00\x00\x00\x00\x00\x00'
p1739
tp1740
Rp1741
sg28
I0
sg29
I9
sg30
I0
sg31
I631
ssS'Elodie Choquet'
p1742
(dp1743
g3
I2
sg4
I1
sg5
g248
sg7
I1
sg8
S'University of Paris Diderot - 2013'
p1744
sg10
I0
sg11
g63
sg13
I31
sg14
I0
sg15
g16
sg17
g18
(g22
S'\xdf\x07\x00\x00\x00\x00\x00\x00'
p1745
tp1746
Rp1747
sg28
I0
sg29
I3
sg30
I0
sg31
I118
ssS'Laura Lopez'
p1748
(dp1749
g3
I7
sg4
I71
sg5
g69
sg7
I4
sg8
Fnan
sg10
I67
sg11
g63
sg13
I62
sg14
I34
sg15
g42
sg17
g18
(g22
S'\xdb\x07\x00\x00\x00\x00\x00\x00'
p1750
tp1751
Rp1752
sg28
I1
sg29
I17
sg30
I0
sg31
I690
ssS'Zheng Zheng'
p1753
(dp1754
g3
I22
sg4
I147
sg5
g447
sg7
I6
sg8
S'The Ohio State University - 2004'
p1755
sg10
I1360
sg11
g12
sg13
I202
sg14
I174
sg15
g16
sg17
g18
(g22
S'\xd4\x07\x00\x00\x00\x00\x00\x00'
p1756
tp1757
Rp1758
sg28
I23
sg29
I61
sg30
I0
sg31
I1983
ssS'Philip Muirhead'
p1759
(dp1760
g3
I3
sg4
I135
sg5
g724
sg7
I2
sg8
S'Cornell University - 2011'
p1761
sg10
I0
sg11
g12
sg13
I91
sg14
I44
sg15
g16
sg17
g18
(g22
S'\xdd\x07\x00\x00\x00\x00\x00\x00'
p1762
tp1763
Rp1764
sg28
I0
sg29
I6
sg30
I0
sg31
I485
ssS'Zoltan Haiman'
p1765
(dp1766
g3
I10
sg4
I417
sg5
g228
sg7
I10
sg8
g749
sg10
I2961
sg11
g12
sg13
I63
sg14
I126
sg15
g16
sg17
g18
(g22
S'\xcf\x07\x00\x00\x00\x00\x00\x00'
p1767
tp1768
Rp1769
sg28
I16
sg29
I44
sg30
I0
sg31
I2014
ssS'Henry A Kobulnicky'
p1770
(dp1771
g3
I5
sg4
I132
sg5
S'University of California Santa Cruz (yrs 1-2) University of Wisconsin (yr 3)'
p1772
sg7
I5
sg8
S'University of Minnesota - 1997'
p1773
sg10
I2061
sg11
g12
sg13
I106
sg14
I6
sg15
g16
sg17
g18
(g22
S'\xcd\x07\x00\x00\x00\x00\x00\x00'
p1774
tp1775
Rp1776
sg28
I14
sg29
I30
sg30
I0
sg31
I1488
ssS'Elizabeth Lada'
p1777
(dp1778
g3
I6
sg4
I92
sg5
g163
sg7
I1
sg8
S'University of Texas'
p1779
sg10
I770
sg11
g63
sg13
I10
sg14
I67
sg15
g16
sg17
g18
(g22
S'\xc9\x07\x00\x00\x00\x00\x00\x00'
p1780
tp1781
Rp1782
sg28
I1
sg29
I8
sg30
I0
sg31
I201
ssS'Marusa Bradac'
p1783
(dp1784
g3
I6
sg4
I138
sg5
g525
sg7
I4
sg8
S'Bonn 2004'
p1785
sg10
I409
sg11
g63
sg13
I87
sg14
I92
sg15
g16
sg17
g18
(g22
S'\xd7\x07\x00\x00\x00\x00\x00\x00'
p1786
tp1787
Rp1788
sg28
I2
sg29
I13
sg30
I0
sg31
I554
ssS'Karoline Gilbert'
p1789
(dp1790
g3
I7
sg4
I48
sg5
g761
sg7
I1
sg8
S'University of California Santa Cruz - 2008'
p1791
sg10
I89
sg11
g63
sg13
I67
sg14
I74
sg15
g16
sg17
g18
(g22
S'\xda\x07\x00\x00\x00\x00\x00\x00'
p1792
tp1793
Rp1794
sg28
I1
sg29
I9
sg30
I0
sg31
I467
ssS'Shy Genel'
p1795
(dp1796
g3
I7
sg4
I210
sg5
g305
sg7
I1
sg8
S'Ludwig Maximilians University Munich - 2011'
p1797
sg10
I0
sg11
g12
sg13
I51
sg14
I243
sg15
g16
sg17
g18
(g22
S'\xde\x07\x00\x00\x00\x00\x00\x00'
p1798
tp1799
Rp1800
sg28
I0
sg29
I9
sg30
I0
sg31
I698
ssS'Joseph Hennawi'
p1801
(dp1802
g3
I1
sg4
I59
sg5
g667
sg7
I3
sg8
S'Princeton University - 2004'
p1803
sg10
I679
sg11
g12
sg13
I69
sg14
I17
sg15
g16
sg17
g18
(g22
S'\xd4\x07\x00\x00\x00\x00\x00\x00'
p1804
tp1805
Rp1806
sg28
I5
sg29
I13
sg30
I0
sg31
I1228
ssS'Michele Fumagalli'
p1807
(dp1808
g3
I8
sg4
I257
sg5
g55
sg7
I5
sg8
S'University of California Santa Cruz - 2012'
p1809
sg10
I72
sg11
g63
sg13
I91
sg14
I43
sg15
g16
sg17
g18
(g22
S'\xdc\x07\x00\x00\x00\x00\x00\x00'
p1810
tp1811
Rp1812
sg28
I1
sg29
I19
sg30
I0
sg31
I1259
ssS'Bryan Gaensler'
p1813
(dp1814
g3
I4
sg4
I87
sg5
g69
sg7
I10
sg8
g655
sg10
I2253
sg11
g12
sg13
I160
sg14
I23
sg15
g16
sg17
g18
(g22
S'\xce\x07\x00\x00\x00\x00\x00\x00'
p1815
tp1816
Rp1817
sg28
I22
sg29
I43
sg30
I0
sg31
I2180
ssS'Rachel Mandelbaum'
p1818
(dp1819
g3
I3
sg4
I183
sg5
g447
sg7
I3
sg8
S'Princeton University - 2006'
p1820
sg10
I1313
sg11
g63
sg13
I182
sg14
I32
sg15
g16
sg17
g18
(g22
S'\xd6\x07\x00\x00\x00\x00\x00\x00'
p1821
tp1822
Rp1823
sg28
I8
sg29
I21
sg30
I0
sg31
I1654
ssS'Tabetha Boyajian'
p1824
(dp1825
g3
I5
sg4
I28
sg5
S'Georgia State University'
p1826
sg7
I0
sg8
S'Georgia State University - 2009'
p1827
sg10
I342
sg11
g63
sg13
I227
sg14
I20
sg15
g16
sg17
g18
(g22
S'\xd9\x07\x00\x00\x00\x00\x00\x00'
p1828
tp1829
Rp1830
sg28
I7
sg29
I16
sg30
I0
sg31
I1250
ssS'Boaz Katz'
p1831
(dp1832
g3
I12
sg4
I97
sg5
S'Institute for Advanced Studies'
p1833
sg7
I5
sg8
Fnan
sg10
I120
sg11
g12
sg13
I47
sg14
I102
sg15
g42
sg17
g18
(g22
S'\xda\x07\x00\x00\x00\x00\x00\x00'
p1834
tp1835
Rp1836
sg28
I0
sg29
I20
sg30
I0
sg31
I437
ssS'Jennifer Patience'
p1837
(dp1838
g3
I4
sg4
I31
sg5
Fnan
sg7
I0
sg8
g591
sg10
I283
sg11
g63
sg13
I52
sg14
I61
sg15
g133
sg17
g18
(g22
S'\xd4\x07\x00\x00\x00\x00\x00\x00'
p1839
tp1840
Rp1841
sg28
I5
sg29
I9
sg30
I0
sg31
I502
ssS'Michael Brown'
p1842
(dp1843
g3
I13
sg4
I36
sg5
g261
sg7
I5
sg8
S'University of California Berkeley'
p1844
sg10
I3274
sg11
g12
sg13
I326
sg14
I84
sg15
g16
sg17
g18
(g22
S'\xca\x07\x00\x00\x00\x00\x00\x00'
p1845
tp1846
Rp1847
sg28
I81
sg29
I109
sg30
I0
sg31
I3095
ssS'Mario Manuel'
p1848
(dp1849
g3
I0
sg4
I0
sg5
g1505
sg7
I0
sg8
Fnan
sg10
I0
sg11
g12
sg13
I0
sg14
I0
sg15
g42
sg17
g18
(g22
S'\xdd\x07\x00\x00\x00\x00\x00\x00'
p1850
tp1851
Rp1852
sg28
I0
sg29
I0
sg30
I0
sg31
I0
ssS'Risa Wechsler'
p1853
(dp1854
g3
I4
sg4
I94
sg5
g748
sg7
I1
sg8
S'University of California Santa Cruz 2001'
p1855
sg10
I797
sg11
g63
sg13
I18
sg14
I84
sg15
g16
sg17
g18
(g22
S'\xd3\x07\x00\x00\x00\x00\x00\x00'
p1856
tp1857
Rp1858
sg28
I0
sg29
I6
sg30
I0
sg31
I247
ssS'Pascal Oesch'
p1859
(dp1860
g3
I2
sg4
I248
sg5
g34
sg7
I2
sg8
S'Eidgenossiche Technische Hochschule Zurich 2010'
p1861
sg10
I549
sg11
g12
sg13
I173
sg14
I35
sg15
g16
sg17
g18
(g22
S'\xda\x07\x00\x00\x00\x00\x00\x00'
p1862
tp1863
Rp1864
sg28
I4
sg29
I14
sg30
I0
sg31
I846
ssS'Justin Ellis'
p1865
(dp1866
g3
I201
sg4
I944
sg5
g248
sg7
I7
sg8
Fnan
sg10
I0
sg11
g12
sg13
I420
sg14
I11519
sg15
g42
sg17
g18
(g22
S'\xde\x07\x00\x00\x00\x00\x00\x00'
p1867
tp1868
Rp1869
sg28
I0
sg29
I215
sg30
I0
sg31
I9484
ssS'Norbert Werner'
p1870
(dp1871
g3
I6
sg4
I87
sg5
g41
sg7
I2
sg8
Fnan
sg10
I275
sg11
g12
sg13
I120
sg14
I28
sg15
g42
sg17
g18
(g22
S'\xd8\x07\x00\x00\x00\x00\x00\x00'
p1872
tp1873
Rp1874
sg28
I5
sg29
I17
sg30
I0
sg31
I912
ssS'Mercedes Lopez-Morales'
p1875
(dp1876
g3
I5
sg4
I109
sg5
g1498
sg7
I2
sg8
S'University of North Carolina Chapel Hill - 2004'
p1877
sg10
I282
sg11
g63
sg13
I42
sg14
I19
sg15
g16
sg17
g18
(g22
S'\xd7\x07\x00\x00\x00\x00\x00\x00'
p1878
tp1879
Rp1880
sg28
I3
sg29
I14
sg30
I0
sg31
I375
ssS'Alison Coil'
p1881
(dp1882
g3
I7
sg4
I140
sg5
g95
sg7
I3
sg8
S'University of California Berkeley - 2004'
p1883
sg10
I751
sg11
g63
sg13
I112
sg14
I82
sg15
g16
sg17
g18
(g22
S'\xd5\x07\x00\x00\x00\x00\x00\x00'
p1884
tp1885
Rp1886
sg28
I4
sg29
I15
sg30
I0
sg31
I817
ssS'Constance Rockosi'
p1887
(dp1888
g3
I0
sg4
I9
sg5
g761
sg7
I1
sg8
S'University of Chicago - 2001'
p1889
sg10
I97
sg11
g63
sg13
I9
sg14
I0
sg15
g16
sg17
g18
(g22
S'\xd1\x07\x00\x00\x00\x00\x00\x00'
p1890
tp1891
Rp1892
sg28
I0
sg29
I2
sg30
I0
sg31
I46
ssS'Daniel Reichart_'
p1893
(dp1894
g3
I7
sg4
I217
sg5
g261
sg7
I4
sg8
S'University of Chicago - 2000'
p1895
sg10
I463
sg11
g12
sg13
I40
sg14
I82
sg15
g16
sg17
g18
(g22
S'\xd0\x07\x00\x00\x00\x00\x00\x00'
p1896
tp1897
Rp1898
sg28
I2
sg29
I15
sg30
I0
sg31
I396
ssS'Margaret Hanson'
p1899
(dp1900
g3
I7
sg4
I37
sg5
g95
sg7
I2
sg8
S'University of Colorado - 1995'
p1901
sg10
I891
sg11
g63
sg13
I33
sg14
I11
sg15
g16
sg17
g18
(g22
S'\xcb\x07\x00\x00\x00\x00\x00\x00'
p1902
tp1903
Rp1904
sg28
I6
sg29
I18
sg30
I0
sg31
I676
ssS'Chris Nixon'
p1905
(dp1906
g3
I13
sg4
I168
sg5
S'University of Colorado Boulder'
p1907
sg7
I5
sg8
Fnan
sg10
I60
sg11
g12
sg13
I151
sg14
I78
sg15
g42
sg17
g18
(g22
S'\xdc\x07\x00\x00\x00\x00\x00\x00'
p1908
tp1909
Rp1910
sg28
I2
sg29
I29
sg30
I0
sg31
I1062
ssS'Wladimir Lyra'
p1911
(dp1912
g3
I7
sg4
I129
sg5
Fnan
sg7
I3
sg8
S'Jet Propulsion Laboratory'
p1913
sg10
I180
sg11
g12
sg13
I31
sg14
I77
sg15
g133
sg17
g18
(g22
S'\xdb\x07\x00\x00\x00\x00\x00\x00'
p1914
tp1915
Rp1916
sg28
I2
sg29
I14
sg30
I0
sg31
I734
ssS'Xiaohui Hui'
p1917
(dp1918
g3
I0
sg4
I5
sg5
g261
sg7
I4
sg8
S'Boston University'
p1919
sg10
I333
sg11
g12
sg13
I9
sg14
I0
sg15
g16
sg17
g18
(g22
S'\xc7\x07\x00\x00\x00\x00\x00\x00'
p1920
tp1921
Rp1922
sg28
I1
sg29
I5
sg30
I0
sg31
I123
ssS'Brandon C. Kelly'
p1923
(dp1924
g3
I15
sg4
I162
sg5
g169
sg7
I4
sg8
g1110
sg10
I785
sg11
g12
sg13
I68
sg14
I81
sg15
g16
sg17
g18
(g22
S'\xd8\x07\x00\x00\x00\x00\x00\x00'
p1925
tp1926
Rp1927
sg28
I6
sg29
I31
sg30
I0
sg31
I1939
ssS'Misty Bentz'
p1928
(dp1929
g3
I9
sg4
I288
sg5
g1650
sg7
I2
sg8
S'The Ohio State University - 2007'
p1930
sg10
I673
sg11
g63
sg13
I169
sg14
I131
sg15
g16
sg17
g18
(g22
S'\xd9\x07\x00\x00\x00\x00\x00\x00'
p1931
tp1932
Rp1933
sg28
I3
sg29
I17
sg30
I0
sg31
I693
ssS'Kris Sigurdson'
p1934
(dp1935
g3
I5
sg4
I59
sg5
g447
sg7
I3
sg8
S'California Institute of Technology - 2005'
p1936
sg10
I201
sg11
g12
sg13
I15
sg14
I11
sg15
g16
sg17
g18
(g22
S'\xd5\x07\x00\x00\x00\x00\x00\x00'
p1937
tp1938
Rp1939
sg28
I0
sg29
I10
sg30
I0
sg31
I275
ssS'Sam Ragland'
p1940
(dp1941
g3
I7
sg4
I5
sg5
Fnan
sg7
I0
sg8
g215
sg10
I107
sg11
g12
sg13
I62
sg14
I10
sg15
g133
sg17
g18
(g22
S'\xd1\x07\x00\x00\x00\x00\x00\x00'
p1942
tp1943
Rp1944
sg28
I5
sg29
I12
sg30
I0
sg31
I370
ssS'Ondrej Pejcha'
p1945
(dp1946
g3
I9
sg4
I106
sg5
g228
sg7
I4
sg8
S'The Ohio State University - 2013'
p1947
sg10
I0
sg11
g12
sg13
I26
sg14
I71
sg15
g16
sg17
g18
(g22
S'\xdd\x07\x00\x00\x00\x00\x00\x00'
p1948
tp1949
Rp1950
sg28
I0
sg29
I16
sg30
I0
sg31
I1171
ssS'Kazumi Kashiyama'
p1951
(dp1952
g3
I8
sg4
I75
sg5
g514
sg7
I2
sg8
Fnan
sg10
I0
sg11
g12
sg13
I25
sg14
I53
sg15
g42
sg17
g18
(g22
S'\xde\x07\x00\x00\x00\x00\x00\x00'
p1953
tp1954
Rp1955
sg28
I0
sg29
I11
sg30
I0
sg31
I636
ssS'Robert Hynes'
p1956
(dp1957
g3
I14
sg4
I132
sg5
g81
sg7
I7
sg8
S'Open University - 1999'
p1958
sg10
I751
sg11
g12
sg13
I162
sg14
I71
sg15
g16
sg17
g18
(g22
S'\xd2\x07\x00\x00\x00\x00\x00\x00'
p1959
tp1960
Rp1961
sg28
I9
sg29
I36
sg30
I0
sg31
I1158
ssS"Ryan O'Leary"
p1962
(dp1963
g3
I5
sg4
I63
sg5
g514
sg7
I2
sg8
Fnan
sg10
I120
sg11
g12
sg13
I15
sg14
I89
sg15
g42
sg17
g18
(g22
S'\xda\x07\x00\x00\x00\x00\x00\x00'
p1964
tp1965
Rp1966
sg28
I2
sg29
I10
sg30
I0
sg31
I554
ssS'Joanne C. Baker'
p1967
(dp1968
g3
I41
sg4
I150
sg5
g667
sg7
I8
sg8
S'Sydney - 1995'
p1969
sg10
I2641
sg11
g63
sg13
I196
sg14
I437
sg15
g16
sg17
g18
(g22
S'\xce\x07\x00\x00\x00\x00\x00\x00'
p1970
tp1971
Rp1972
sg28
I34
sg29
I87
sg30
I0
sg31
I1810
ssS'Shane Davis'
p1973
(dp1974
g3
I49
sg4
I174
sg5
g335
sg7
I7
sg8
Fnan
sg10
I946
sg11
g12
sg13
I83
sg14
I450
sg15
g42
sg17
g18
(g22
S'\xd6\x07\x00\x00\x00\x00\x00\x00'
p1975
tp1976
Rp1977
sg28
I9
sg29
I71
sg30
I0
sg31
I1590
ssS'Ettore Pedretti'
p1978
(dp1979
g3
I2
sg4
I11
sg5
Fnan
sg7
I2
sg8
S'University of Michigan'
p1980
sg10
I46
sg11
g12
sg13
I39
sg14
I14
sg15
g133
sg17
g18
(g22
S'\xd3\x07\x00\x00\x00\x00\x00\x00'
p1981
tp1982
Rp1983
sg28
I2
sg29
I6
sg30
I0
sg31
I156
ssS'Timothy Rodigas'
p1984
(dp1985
g3
I7
sg4
I11
sg5
S'Carnegie Institute of Washington DTM'
p1986
sg7
I1
sg8
S'University of Arizona - 2013'
p1987
sg10
I0
sg11
g12
sg13
I125
sg14
I47
sg15
g16
sg17
g18
(g22
S'\xdf\x07\x00\x00\x00\x00\x00\x00'
p1988
tp1989
Rp1990
sg28
I0
sg29
I10
sg30
I0
sg31
I444
ssS'Sjoert Van Velzen'
p1991
(dp1992
g3
I5
sg4
I137
sg5
g364
sg7
I2
sg8
S'Radboud University Nijmegen - 2014'
p1993
sg10
I0
sg11
g12
sg13
I34
sg14
I89
sg15
g16
sg17
g18
(g22
S'\xde\x07\x00\x00\x00\x00\x00\x00'
p1994
tp1995
Rp1996
sg28
I0
sg29
I9
sg30
I0
sg31
I711
ssS'Massimo Gaspari'
p1997
(dp1998
g3
I9
sg4
I45
sg5
g228
sg7
I0
sg8
Fnan
sg10
I0
sg11
g12
sg13
I24
sg14
I223
sg15
g42
sg17
g18
(g22
S'\xdf\x07\x00\x00\x00\x00\x00\x00'
p1999
tp2000
Rp2001
sg28
I0
sg29
I11
sg30
I0
sg31
I979
ssS'Kevin Stevenson'
p2002
(dp2003
g3
I3
sg4
I111
sg5
Fnan
sg7
I2
sg8
g35
sg10
I0
sg11
g12
sg13
I62
sg14
I90
sg15
g133
sg17
g18
(g22
S'\xde\x07\x00\x00\x00\x00\x00\x00'
p2004
tp2005
Rp2006
sg28
I0
sg29
I9
sg30
I0
sg31
I354
ssS'Puragra Guhathakurta'
p2007
(dp2008
g3
I5
sg4
I82
sg5
g228
sg7
I3
sg8
g794
sg10
I617
sg11
g12
sg13
I45
sg14
I39
sg15
g16
sg17
g18
(g22
S'\xc8\x07\x00\x00\x00\x00\x00\x00'
p2009
tp2010
Rp2011
sg28
I5
sg29
I16
sg30
I0
sg31
I386
ssS'Amy Reines'
p2012
(dp2013
g3
I4
sg4
I67
sg5
S'National Radio Astronomy Observatory'
p2014
sg7
I2
sg8
Fnan
sg10
I134
sg11
g63
sg13
I21
sg14
I28
sg15
g42
sg17
g18
(g22
S'\xdb\x07\x00\x00\x00\x00\x00\x00'
p2015
tp2016
Rp2017
sg28
I1
sg29
I11
sg30
I0
sg31
I602
ssS'Nathalie Degenaar'
p2018
(dp2019
g3
I5
sg4
I134
sg5
g1505
sg7
I9
sg8
S'Amsterdam NL 2010'
p2020
sg10
I156
sg11
g63
sg13
I156
sg14
I15
sg15
g16
sg17
g18
(g22
S'\xdb\x07\x00\x00\x00\x00\x00\x00'
p2021
tp2022
Rp2023
sg28
I4
sg29
I29
sg30
I0
sg31
I1817
ssS'Roeland van der Marel'
p2024
(dp2025
g3
I0
sg4
I0
sg5
g447
sg7
I0
sg8
S'Leiden'
p2026
sg10
I0
sg11
g12
sg13
I0
sg14
I0
sg15
g16
sg17
g18
(g22
S'\xca\x07\x00\x00\x00\x00\x00\x00'
p2027
tp2028
Rp2029
sg28
I0
sg29
I0
sg30
I0
sg31
I0
ssS'Michael A. Pahre'
p2030
(dp2031
g3
I4
sg4
I88
sg5
g151
sg7
I6
sg8
g544
sg10
I549
sg11
g12
sg13
I36
sg14
I32
sg15
g16
sg17
g18
(g22
S'\xcd\x07\x00\x00\x00\x00\x00\x00'
p2032
tp2033
Rp2034
sg28
I3
sg29
I13
sg30
I0
sg31
I426
ssS'Michael Fitzgerald'
p2035
(dp2036
g3
I40
sg4
I83
sg5
Fnan
sg7
I3
sg8
S'Lawrence Livermore National Laboratory'
p2037
sg10
I177
sg11
g12
sg13
I84
sg14
I1521
sg15
g133
sg17
g18
(g22
S'\xd7\x07\x00\x00\x00\x00\x00\x00'
p2038
tp2039
Rp2040
sg28
I4
sg29
I50
sg30
I0
sg31
I607
ssS'Kate Follette'
p2041
(dp2042
g3
I4
sg4
I0
sg5
Fnan
sg7
I0
sg8
Fnan
sg10
I0
sg11
g63
sg13
I127
sg14
I50
sg15
g133
sg17
g18
(g22
S'\xe0\x07\x00\x00\x00\x00\x00\x00'
p2043
tp2044
Rp2045
sg28
I0
sg29
I4
sg30
I0
sg31
I180
ssS'Jay M Strader'
p2046
(dp2047
g3
I9
sg4
I89
sg5
g112
sg7
I3
sg8
S'University of California Santa Cruz 2007'
p2048
sg10
I538
sg11
g12
sg13
I99
sg14
I116
sg15
g16
sg17
g18
(g22
S'\xd7\x07\x00\x00\x00\x00\x00\x00'
p2049
tp2050
Rp2051
sg28
I11
sg29
I25
sg30
I0
sg31
I1257
ssS'Krzysztof Nalewajko'
p2052
(dp2053
g3
I9
sg4
I102
sg5
g1907
sg7
I3
sg8
Fnan
sg10
I0
sg11
g12
sg13
I26
sg14
I56
sg15
g42
sg17
g18
(g22
S'\xdd\x07\x00\x00\x00\x00\x00\x00'
p2054
tp2055
Rp2056
sg28
I0
sg29
I13
sg30
I0
sg31
I555
ssS'Joseph Mohr'
p2057
(dp2058
g3
I18
sg4
I182
sg5
S'Chicago University'
p2059
sg7
I2
sg8
Fnan
sg10
I672
sg11
g12
sg13
I29
sg14
I95
sg15
g42
sg17
g18
(g22
S'\xce\x07\x00\x00\x00\x00\x00\x00'
p2060
tp2061
Rp2062
sg28
I2
sg29
I22
sg30
I0
sg31
I446
ssS'Georgiana Ogrean'
p2063
(dp2064
g3
I6
sg4
I79
sg5
g169
sg7
I2
sg8
S'University of Hamburg - 2013'
p2065
sg10
I0
sg11
g63
sg13
I93
sg14
I33
sg15
g16
sg17
g18
(g22
S'\xde\x07\x00\x00\x00\x00\x00\x00'
p2066
tp2067
Rp2068
sg28
I0
sg29
I10
sg30
I0
sg31
I384
ssS'Selma de Mink'
p2069
(dp2070
g3
I7
sg4
I220
sg5
g312
sg7
I2
sg8
Fnan
sg10
I0
sg11
g63
sg13
I24
sg14
I147
sg15
g42
sg17
g18
(g22
S'\xdd\x07\x00\x00\x00\x00\x00\x00'
p2071
tp2072
Rp2073
sg28
I0
sg29
I10
sg30
I0
sg31
I600
ssS'Khee-Gan Lee'
p2074
(dp2075
g3
I119
sg4
I84
sg5
g75
sg7
I2
sg8
g1529
sg10
I0
sg11
g12
sg13
I528
sg14
I1772
sg15
g16
sg17
g18
(g22
S'\xdf\x07\x00\x00\x00\x00\x00\x00'
p2076
tp2077
Rp2078
sg28
I0
sg29
I125
sg30
I0
sg31
I3318
ssS'Marten van Kerwijk'
p2079
(dp2080
g3
I0
sg4
I0
sg5
g261
sg7
I0
sg8
S'Amsterdam'
p2081
sg10
I0
sg11
g12
sg13
I0
sg14
I0
sg15
g16
sg17
g18
(g22
S'\xc9\x07\x00\x00\x00\x00\x00\x00'
p2082
tp2083
Rp2084
sg28
I0
sg29
I0
sg30
I0
sg31
I0
ssS'Christian Knigge'
p2085
(dp2086
g3
I6
sg4
I35
sg5
g305
sg7
I3
sg8
S'Oxford 1995'
p2087
sg10
I931
sg11
Fnan
sg13
I66
sg14
I27
sg15
g16
sg17
g18
(g22
S'\xce\x07\x00\x00\x00\x00\x00\x00'
p2088
tp2089
Rp2090
sg28
I13
sg29
I25
sg30
I0
sg31
I973
ssS'Taotao Fang'
p2091
(dp2092
g3
I13
sg4
I112
sg5
g514
sg7
I4
sg8
Fnan
sg10
I557
sg11
g12
sg13
I106
sg14
I90
sg15
g42
sg17
g18
(g22
S'\xd3\x07\x00\x00\x00\x00\x00\x00'
p2093
tp2094
Rp2095
sg28
I17
sg29
I36
sg30
I0
sg31
I1353
ssS'Dimitar Sasselov'
p2096
(dp2097
g3
I14
sg4
I36
sg5
g151
sg7
I6
sg8
S'University of Toronto'
p2098
sg10
I522
sg11
g12
sg13
I56
sg14
I76
sg15
g16
sg17
g18
(g22
S'\xc9\x07\x00\x00\x00\x00\x00\x00'
p2099
tp2100
Rp2101
sg28
I5
sg29
I27
sg30
I0
sg31
I538
ssS'Andrew Cumming'
p2102
(dp2103
g3
I4
sg4
I92
sg5
g34
sg7
I3
sg8
g1021
sg10
I1357
sg11
g12
sg13
I76
sg14
I49
sg15
g16
sg17
g18
(g22
S'\xd1\x07\x00\x00\x00\x00\x00\x00'
p2104
tp2105
Rp2106
sg28
I10
sg29
I23
sg30
I0
sg31
I985
ssS'Adam Leroy'
p2107
(dp2108
g3
I6
sg4
I311
sg5
g2014
sg7
I2
sg8
S'University of California Berkeley - 2006'
p2109
sg10
I1006
sg11
g12
sg13
I123
sg14
I77
sg15
g16
sg17
g18
(g22
S'\xd9\x07\x00\x00\x00\x00\x00\x00'
p2110
tp2111
Rp2112
sg28
I6
sg29
I17
sg30
I0
sg31
I1097
ssS'Ryan Quadri'
p2113
(dp2114
g3
I5
sg4
I78
sg5
g55
sg7
I1
sg8
S'Yale University - 2007'
p2115
sg10
I63
sg11
g12
sg13
I42
sg14
I100
sg15
g16
sg17
g18
(g22
S'\xda\x07\x00\x00\x00\x00\x00\x00'
p2116
tp2117
Rp2118
sg28
I0
sg29
I7
sg30
I0
sg31
I288
ssS'Ezequiel Treister'
p2119
(dp2120
g3
I7
sg4
I167
sg5
g176
sg7
I6
sg8
Fnan
sg10
I558
sg11
g12
sg13
I93
sg14
I166
sg15
g42
sg17
g18
(g22
S'\xd8\x07\x00\x00\x00\x00\x00\x00'
p2121
tp2122
Rp2123
sg28
I3
sg29
I19
sg30
I0
sg31
I903
ssS'Katie Morzinski'
p2124
(dp2125
g3
I1
sg4
I3
sg5
Fnan
sg7
I0
sg8
g490
sg10
I7
sg11
g63
sg13
I19
sg14
I0
sg15
g133
sg17
g18
(g22
S'\xdb\x07\x00\x00\x00\x00\x00\x00'
p2126
tp2127
Rp2128
sg28
I1
sg29
I3
sg30
I0
sg31
I130
ssS'Sangeeta Malhotra'
p2129
(dp2130
g3
I10
sg4
I85
sg5
S'Kitt Peak National Observatory (yr 1) The Johns Hopkins University (yrs 2-3)'
p2131
sg7
I1
sg8
g262
sg10
I1160
sg11
g63
sg13
I88
sg14
I36
sg15
g16
sg17
g18
(g22
S'\xce\x07\x00\x00\x00\x00\x00\x00'
p2132
tp2133
Rp2134
sg28
I6
sg29
I18
sg30
I0
sg31
I677
ssS'David Pooley'
p2135
(dp2136
g3
I6
sg4
I97
sg5
g514
sg7
I4
sg8
Fnan
sg10
I563
sg11
g12
sg13
I68
sg14
I78
sg15
g42
sg17
g18
(g22
S'\xd4\x07\x00\x00\x00\x00\x00\x00'
p2137
tp2138
Rp2139
sg28
I4
sg29
I15
sg30
I0
sg31
I549
ssS'Jeremy King'
p2140
(dp2141
g3
I58
sg4
I81
sg5
g81
sg7
I8
sg8
S'University of Hawaii'
p2142
sg10
I1737
sg11
g12
sg13
I142
sg14
I532
sg15
g16
sg17
g18
(g22
S'\xc9\x07\x00\x00\x00\x00\x00\x00'
p2143
tp2144
Rp2145
sg28
I30
sg29
I105
sg30
I0
sg31
I2127
ssS'Nikhil Padmanabhan'
p2146
(dp2147
g3
I6
sg4
I181
sg5
g75
sg7
I4
sg8
S'Princeton University - 2005'
p2148
sg10
I1256
sg11
g12
sg13
I100
sg14
I64
sg15
g16
sg17
g18
(g22
S'\xd6\x07\x00\x00\x00\x00\x00\x00'
p2149
tp2150
Rp2151
sg28
I1
sg29
I15
sg30
I0
sg31
I649
ssS'Edward Ford Schlafly'
p2152
(dp2153
g3
I6
sg4
I190
sg5
g75
sg7
I0
sg8
S'Harvard University - 2012'
p2154
sg10
I0
sg11
g12
sg13
I71
sg14
I596
sg15
g16
sg17
g18
(g22
S'\xdf\x07\x00\x00\x00\x00\x00\x00'
p2155
tp2156
Rp2157
sg28
I0
sg29
I7
sg30
I0
sg31
I298
ssS'Michael Rauch'
p2158
(dp2159
g3
I4
sg4
I104
sg5
g261
sg7
I4
sg8
S'University of Cambridge - 1993'
p2160
sg10
I1326
sg11
g12
sg13
I78
sg14
I60
sg15
g16
sg17
g18
(g22
S'\xcb\x07\x00\x00\x00\x00\x00\x00'
p2161
tp2162
Rp2163
sg28
I12
sg29
I23
sg30
I0
sg31
I1382
ssS'Chris Reynolds'
p2164
(dp2165
g3
I13
sg4
I374
sg5
S'University of Colorado JILA'
p2166
sg7
I6
sg8
S'Cambridge 1996'
p2167
sg10
I2518
sg11
g12
sg13
I128
sg14
I123
sg15
g16
sg17
g18
(g22
S'\xce\x07\x00\x00\x00\x00\x00\x00'
p2168
tp2169
Rp2170
sg28
I29
sg29
I53
sg30
I0
sg31
I2026
ssS'Matthew Kunz'
p2171
(dp2172
g3
I26
sg4
I217
sg5
g228
sg7
I4
sg8
Fnan
sg10
I180
sg11
g12
sg13
I86
sg14
I375
sg15
g42
sg17
g18
(g22
S'\xdb\x07\x00\x00\x00\x00\x00\x00'
p2173
tp2174
Rp2175
sg28
I2
sg29
I36
sg30
I0
sg31
I1347
ssS'Daniel N Kasen'
p2176
(dp2177
g3
I7
sg4
I84
sg5
g34
sg7
I3
sg8
g1883
sg10
I1040
sg11
g12
sg13
I36
sg14
I63
sg15
g16
sg17
g18
(g22
S'\xd7\x07\x00\x00\x00\x00\x00\x00'
p2178
tp2179
Rp2180
sg28
I4
sg29
I21
sg30
I0
sg31
I757
ssS'Michael Johnson'
p2181
(dp2182
g3
I114
sg4
I0
sg5
Fnan
sg7
I0
sg8
Fnan
sg10
I0
sg11
g12
sg13
I167
sg14
I1532
sg15
g42
sg17
g18
(g22
S'\xe0\x07\x00\x00\x00\x00\x00\x00'
p2183
tp2184
Rp2185
sg28
I0
sg29
I114
sg30
I0
sg31
I1780
ssS'Leslie Rogers'
p2186
(dp2187
g3
I10
sg4
I30
sg5
Fnan
sg7
I0
sg8
g1387
sg10
I0
sg11
g63
sg13
I20
sg14
I308
sg15
g133
sg17
g18
(g22
S'\xdf\x07\x00\x00\x00\x00\x00\x00'
p2188
tp2189
Rp2190
sg28
I0
sg29
I11
sg30
I0
sg31
I319
ssS'Suzanne L. Hawley'
p2191
(dp2192
g3
I19
sg4
I40
sg5
S'Lawrence Livermore National Laboratory'
p2193
sg7
I3
sg8
g1779
sg10
I1313
sg11
g63
sg13
I95
sg14
I422
sg15
g16
sg17
g18
(g22
S'\xc7\x07\x00\x00\x00\x00\x00\x00'
p2194
tp2195
Rp2196
sg28
I15
sg29
I39
sg30
I0
sg31
I1005
ssS'Johan Samsing'
p2197
(dp2198
g3
I4
sg4
I25
sg5
g228
sg7
I2
sg8
Fnan
sg10
I0
sg11
g12
sg13
I8
sg14
I16
sg15
g42
sg17
g18
(g22
S'\xde\x07\x00\x00\x00\x00\x00\x00'
p2199
tp2200
Rp2201
sg28
I0
sg29
I7
sg30
I0
sg31
I353
ssS'Dennis F. Zaritsky'
p2202
(dp2203
g3
I6
sg4
I83
sg5
g55
sg7
I7
sg8
g490
sg10
I3634
sg11
g12
sg13
I170
sg14
I39
sg15
g16
sg17
g18
(g22
S'\xc7\x07\x00\x00\x00\x00\x00\x00'
p2204
tp2205
Rp2206
sg28
I39
sg29
I56
sg30
I0
sg31
I2031
ssS'Rutger van Haasteren'
p2207
(dp2208
g3
I5
sg4
I157
sg5
g248
sg7
I2
sg8
Fnan
sg10
I0
sg11
g12
sg13
I45
sg14
I82
sg15
g42
sg17
g18
(g22
S'\xdd\x07\x00\x00\x00\x00\x00\x00'
p2209
tp2210
Rp2211
sg28
I0
sg29
I9
sg30
I0
sg31
I185
ssS'Neal Katz'
p2212
(dp2213
g3
I5
sg4
I46
sg5
g69
sg7
I6
sg8
g794
sg10
I2631
sg11
g12
sg13
I32
sg14
I26
sg15
g16
sg17
g18
(g22
S'\xc6\x07\x00\x00\x00\x00\x00\x00'
p2214
tp2215
Rp2216
sg28
I7
sg29
I20
sg30
I0
sg31
I538
ssS'Eric Coughlin'
p2217
(dp2218
g3
I5
sg4
I0
sg5
Fnan
sg7
I0
sg8
Fnan
sg10
I0
sg11
g12
sg13
I9
sg14
I33
sg15
g42
sg17
g18
(g22
S'\xe0\x07\x00\x00\x00\x00\x00\x00'
p2219
tp2220
Rp2221
sg28
I0
sg29
I6
sg30
I0
sg31
I294
ssS'Masao Sako'
p2222
(dp2223
g3
I3
sg4
I111
sg5
g145
sg7
I2
sg8
Fnan
sg10
I484
sg11
g12
sg13
I94
sg14
I5
sg15
g42
sg17
g18
(g22
S'\xd1\x07\x00\x00\x00\x00\x00\x00'
p2224
tp2225
Rp2226
sg28
I3
sg29
I10
sg30
I0
sg31
I556
ssS'Robert Metcalf'
p2227
(dp2228
g3
I11
sg4
I134
sg5
g34
sg7
I1
sg8
g1422
sg10
I546
sg11
g12
sg13
I18
sg14
I110
sg15
g16
sg17
g18
(g22
S'\xd2\x07\x00\x00\x00\x00\x00\x00'
p2229
tp2230
Rp2231
sg28
I9
sg29
I25
sg30
I0
sg31
I630
ssS'Donna Womble'
p2232
(dp2233
g3
I1
sg4
I7
sg5
g261
sg7
I1
sg8
S'University of California San Diego'
p2234
sg10
I37
sg11
g12
sg13
I5
sg14
I6
sg15
g16
sg17
g18
(g22
S'\xc8\x07\x00\x00\x00\x00\x00\x00'
p2235
tp2236
Rp2237
sg28
I0
sg29
I4
sg30
I0
sg31
I119
ssS'Patrick J. McCarthy'
p2238
(dp2239
g3
I10
sg4
I204
sg5
g55
sg7
I5
sg8
g1844
sg10
I2014
sg11
g12
sg13
I113
sg14
I154
sg15
g16
sg17
g18
(g22
S'\xc7\x07\x00\x00\x00\x00\x00\x00'
p2240
tp2241
Rp2242
sg28
I10
sg29
I28
sg30
I0
sg31
I1120
ssS'Marcel Pawlowski'
p2243
(dp2244
g3
I14
sg4
I0
sg5
Fnan
sg7
I0
sg8
S'Irvine'
p2245
sg10
I0
sg11
g12
sg13
I37
sg14
I362
sg15
g16
sg17
g18
(g22
S'\xe0\x07\x00\x00\x00\x00\x00\x00'
p2246
tp2247
Rp2248
sg28
I0
sg29
I15
sg30
I0
sg31
I949
ssS'Paul Green'
p2249
(dp2250
g3
I15
sg4
I53
sg5
g151
sg7
I2
sg8
g288
sg10
I1147
sg11
g12
sg13
I163
sg14
I64
sg15
g16
sg17
g18
(g22
S'\xc8\x07\x00\x00\x00\x00\x00\x00'
p2251
tp2252
Rp2253
sg28
I21
sg29
I43
sg30
I0
sg31
I1686
ssS'Michael R. Meyer'
p2254
(dp2255
g3
I46
sg4
I57
sg5
g95
sg7
I1
sg8
S'University of Massachusetts - 1996'
p2256
sg10
I1691
sg11
g12
sg13
I202
sg14
I4
sg15
g16
sg17
g18
(g22
S'\xcd\x07\x00\x00\x00\x00\x00\x00'
p2257
tp2258
Rp2259
sg28
I24
sg29
I75
sg30
I0
sg31
I1330
ssS'Darren Madgwick'
p2260
(dp2261
g3
I2
sg4
I169
sg5
g75
sg7
I0
sg8
S'University of Cambridge - 2002'
p2262
sg10
I301
sg11
g12
sg13
I80
sg14
I28
sg15
g16
sg17
g18
(g22
S'\xd3\x07\x00\x00\x00\x00\x00\x00'
p2263
tp2264
Rp2265
sg28
I0
sg29
I7
sg30
I0
sg31
I201
ssS'Karl Gebhardt'
p2266
(dp2267
g3
I6
sg4
I61
sg5
g34
sg7
I1
sg8
S'Rutgers 1994'
p2268
sg10
I4787
sg11
g12
sg13
I139
sg14
I51
sg15
g16
sg17
g18
(g22
S'\xcd\x07\x00\x00\x00\x00\x00\x00'
p2269
tp2270
Rp2271
sg28
I11
sg29
I23
sg30
I0
sg31
I862
ssS'Kenneth Sembach'
p2272
(dp2273
g3
I1
sg4
I62
sg5
g69
sg7
I6
sg8
g282
sg10
I1742
sg11
g12
sg13
I85
sg14
I3
sg15
g16
sg17
g18
(g22
S'\xc8\x07\x00\x00\x00\x00\x00\x00'
p2274
tp2275
Rp2276
sg28
I15
sg29
I28
sg30
I0
sg31
I1755
ssS'Elena Rasia'
p2277
(dp2278
g3
I2
sg4
I114
sg5
g1505
sg7
I1
sg8
Fnan
sg10
I378
sg11
g63
sg13
I66
sg14
I32
sg15
g42
sg17
g18
(g22
S'\xd6\x07\x00\x00\x00\x00\x00\x00'
p2279
tp2280
Rp2281
sg28
I6
sg29
I10
sg30
I0
sg31
I731
ssS'Wynn Ho'
p2282
(dp2283
g3
I6
sg4
I69
sg5
g41
sg7
I2
sg8
S'Cornell University - 2003'
p2284
sg10
I630
sg11
g12
sg13
I54
sg14
I110
sg15
g16
sg17
g18
(g22
S'\xd3\x07\x00\x00\x00\x00\x00\x00'
p2285
tp2286
Rp2287
sg28
I18
sg29
I29
sg30
I0
sg31
I1350
ssS'Feryal Ozel'
p2288
(dp2289
g3
I4
sg4
I47
sg5
g447
sg7
I2
sg8
S'Harvard University - 2002'
p2290
sg10
I1206
sg11
g12
sg13
I25
sg14
I16
sg15
g16
sg17
g18
(g22
S'\xd2\x07\x00\x00\x00\x00\x00\x00'
p2291
tp2292
Rp2293
sg28
I13
sg29
I21
sg30
I0
sg31
I933
ssS'Andrea Isella'
p2294
(dp2295
g3
I2
sg4
I86
sg5
Fnan
sg7
I2
sg8
g591
sg10
I455
sg11
g63
sg13
I30
sg14
I14
sg15
g133
sg17
g18
(g22
S'\xd7\x07\x00\x00\x00\x00\x00\x00'
p2296
tp2297
Rp2298
sg28
I3
sg29
I10
sg30
I0
sg31
I496
ssS'Charles Steidel'
p2299
(dp2300
g3
I4
sg4
I127
sg5
g667
sg7
I7
sg8
g591
sg10
I8230
sg11
g12
sg13
I113
sg14
I35
sg15
g16
sg17
g18
(g22
S'\xc6\x07\x00\x00\x00\x00\x00\x00'
p2301
tp2302
Rp2303
sg28
I23
sg29
I41
sg30
I0
sg31
I1483
ssS'Jeffrey Newman'
p2304
(dp2305
g3
I13
sg4
I53
sg5
g75
sg7
I0
sg8
g1021
sg10
I434
sg11
g12
sg13
I194
sg14
I218
sg15
g16
sg17
g18
(g22
S'\xd3\x07\x00\x00\x00\x00\x00\x00'
p2306
tp2307
Rp2308
sg28
I5
sg29
I18
sg30
I0
sg31
I564
ssS'Andrea Ghez'
p2309
(dp2310
g3
I1
sg4
I47
sg5
g95
sg7
I5
sg8
g591
sg10
I3468
sg11
g63
sg13
I92
sg14
I1
sg15
g16
sg17
g18
(g22
S'\xc8\x07\x00\x00\x00\x00\x00\x00'
p2311
tp2312
Rp2313
sg28
I10
sg29
I17
sg30
I0
sg31
I654
ssS'David W. Hogg'
p2314
(dp2315
g3
I16
sg4
I133
sg5
g447
sg7
I6
sg8
g544
sg10
I2235
sg11
g12
sg13
I154
sg14
I318
sg15
g16
sg17
g18
(g22
S'\xcd\x07\x00\x00\x00\x00\x00\x00'
p2316
tp2317
Rp2318
sg28
I16
sg29
I45
sg30
I0
sg31
I993
ssS'William D. Vacca'
p2319
(dp2320
g3
I3
sg4
I24
sg5
g667
sg7
I3
sg8
g1226
sg10
I1782
sg11
g12
sg13
I48
sg14
I30
sg15
g16
sg17
g18
(g22
S'\xc7\x07\x00\x00\x00\x00\x00\x00'
p2321
tp2322
Rp2323
sg28
I10
sg29
I17
sg30
I0
sg31
I764
ssS'Scott Trager'
p2324
(dp2325
g3
I5
sg4
I163
sg5
g55
sg7
I2
sg8
S'University of California Santa Cruz 1997'
p2326
sg10
I1735
sg11
g12
sg13
I23
sg14
I92
sg15
g16
sg17
g18
(g22
S'\xcf\x07\x00\x00\x00\x00\x00\x00'
p2327
tp2328
Rp2329
sg28
I4
sg29
I11
sg30
I0
sg31
I746
ssS'Emily L. Schaller'
p2330
(dp2331
g3
I8
sg4
I103
sg5
g176
sg7
I1
sg8
g1587
sg10
I125
sg11
g63
sg13
I20
sg14
I35
sg15
g16
sg17
g18
(g22
S'\xd8\x07\x00\x00\x00\x00\x00\x00'
p2332
tp2333
Rp2334
sg28
I0
sg29
I10
sg30
I0
sg31
I210
ssS'Timothy Brandt'
p2335
(dp2336
g3
I8
sg4
I121
sg5
Fnan
sg7
I4
sg8
S'Institute for Advanced Study'
p2337
sg10
I0
sg11
g12
sg13
I204
sg14
I120
sg15
g133
sg17
g18
(g22
S'\xde\x07\x00\x00\x00\x00\x00\x00'
p2338
tp2339
Rp2340
sg28
I0
sg29
I15
sg30
I0
sg31
I950
ssS'Amaya Moro-Martin'
p2341
(dp2342
g3
I6
sg4
I64
sg5
Fnan
sg7
I3
sg8
g794
sg10
I229
sg11
g63
sg13
I71
sg14
I54
sg15
g133
sg17
g18
(g22
S'\xd5\x07\x00\x00\x00\x00\x00\x00'
p2343
tp2344
Rp2345
sg28
I5
sg29
I17
sg30
I0
sg31
I596
ssS'Klaus Pontoppidan'
p2346
(dp2347
g3
I7
sg4
I102
sg5
g261
sg7
I5
sg8
g806
sg10
I737
sg11
g12
sg13
I76
sg14
I66
sg15
g16
sg17
g18
(g22
S'\xd6\x07\x00\x00\x00\x00\x00\x00'
p2348
tp2349
Rp2350
sg28
I6
sg29
I20
sg30
I0
sg31
I1085
ssS'Beth Reid'
p2351
(dp2352
g3
I5
sg4
I332
sg5
g75
sg7
I3
sg8
S'Princeton University - 2008'
p2353
sg10
I384
sg11
g63
sg13
I161
sg14
I34
sg15
g16
sg17
g18
(g22
S'\xda\x07\x00\x00\x00\x00\x00\x00'
p2354
tp2355
Rp2356
sg28
I2
sg29
I13
sg30
I0
sg31
I730
ssS'Jennifer Donley'
p2357
(dp2358
g3
I9
sg4
I201
sg5
S'Los Alamos National Laboratory'
p2359
sg7
I0
sg8
S'University of Arizona - 2009'
p2360
sg10
I45
sg11
g63
sg13
I43
sg14
I360
sg15
g16
sg17
g18
(g22
S'\xdc\x07\x00\x00\x00\x00\x00\x00'
p2361
tp2362
Rp2363
sg28
I0
sg29
I10
sg30
I0
sg31
I669
ssS'Jacco Vink'
p2364
(dp2365
g3
I9
sg4
I110
sg5
g305
sg7
I5
sg8
Fnan
sg10
I3057
sg11
g12
sg13
I113
sg14
I50
sg15
g42
sg17
g18
(g22
S'\xd0\x07\x00\x00\x00\x00\x00\x00'
p2366
tp2367
Rp2368
sg28
I37
sg29
I59
sg30
I0
sg31
I2692
ssS'Daniel Eisenstein'
p2369
(dp2370
g3
I10
sg4
I246
sg5
g748
sg7
I2
sg8
S'Harvard University - 1996'
p2371
sg10
I7019
sg11
g12
sg13
I395
sg14
I99
sg15
g16
sg17
g18
(g22
S'\xcf\x07\x00\x00\x00\x00\x00\x00'
p2372
tp2373
Rp2374
sg28
I12
sg29
I26
sg30
I0
sg31
I1439
ssS'Eran Ofek'
p2375
(dp2376
g3
I16
sg4
I161
sg5
g145
sg7
I5
sg8
Fnan
sg10
I569
sg11
g12
sg13
I298
sg14
I177
sg15
g42
sg17
g18
(g22
S'\xd9\x07\x00\x00\x00\x00\x00\x00'
p2377
tp2378
Rp2379
sg28
I6
sg29
I31
sg30
I0
sg31
I1667
ssS'James Lowenthal'
p2380
(dp2381
g3
I4
sg4
I28
sg5
g34
sg7
I2
sg8
g490
sg10
I550
sg11
g12
sg13
I30
sg14
I13
sg15
g16
sg17
g18
(g22
S'\xc9\x07\x00\x00\x00\x00\x00\x00'
p2382
tp2383
Rp2384
sg28
I3
sg29
I10
sg30
I0
sg31
I353
ssS'Adi Zitrin'
p2385
(dp2386
g3
I14
sg4
I338
sg5
g261
sg7
I5
sg8
S'Tel Aviv University - 2012'
p2387
sg10
I0
sg11
g12
sg13
I253
sg14
I228
sg15
g16
sg17
g18
(g22
S'\xdd\x07\x00\x00\x00\x00\x00\x00'
p2388
tp2389
Rp2390
sg28
I0
sg29
I21
sg30
I0
sg31
I1435
ssS'Blakesley Burkhart'
p2391
(dp2392
g3
I7
sg4
I80
sg5
g112
sg7
I3
sg8
Fnan
sg10
I0
sg11
g63
sg13
I31
sg14
I119
sg15
g42
sg17
g18
(g22
S'\xde\x07\x00\x00\x00\x00\x00\x00'
p2393
tp2394
Rp2395
sg28
I0
sg29
I12
sg30
I0
sg31
I683
ssS'Jacqueline Faherty'
p2396
(dp2397
g3
I7
sg4
I215
sg5
S'Carnegie Institution of Washington'
p2398
sg7
I3
sg8
S'University of New York Stony Brook - 2010'
p2399
sg10
I0
sg11
g63
sg13
I45
sg14
I155
sg15
g16
sg17
g18
(g22
S'\xdd\x07\x00\x00\x00\x00\x00\x00'
p2400
tp2401
Rp2402
sg28
I0
sg29
I11
sg30
I0
sg31
I923
ssS'Masami Ouchi'
p2403
(dp2404
g3
I4
sg4
I195
sg5
g281
sg7
I2
sg8
S'University of Tokyo 2003'
p2405
sg10
I1494
sg11
g12
sg13
I184
sg14
I53
sg15
g16
sg17
g18
(g22
S'\xd4\x07\x00\x00\x00\x00\x00\x00'
p2406
tp2407
Rp2408
sg28
I5
sg29
I14
sg30
I0
sg31
I974
ssS'Qinde Wang'
p2409
(dp2410
g3
I10
sg4
I49
sg5
g197
sg7
I12
sg8
g177
sg10
I2639
sg11
g12
sg13
I270
sg14
I19
sg15
g16
sg17
g18
(g22
S'\xc6\x07\x00\x00\x00\x00\x00\x00'
p2411
tp2412
Rp2413
sg28
I79
sg29
I107
sg30
I0
sg31
I2564
ssS'Adam Burgasser'
p2414
(dp2415
g3
I4
sg4
I227
sg5
g531
sg7
I9
sg8
S'California Institute of Technology - 2001'
p2416
sg10
I3340
sg11
g12
sg13
I251
sg14
I46
sg15
g16
sg17
g18
(g22
S'\xd1\x07\x00\x00\x00\x00\x00\x00'
p2417
tp2418
Rp2419
sg28
I38
sg29
I56
sg30
I0
sg31
I4390
ssS'Anna Pancoast'
p2420
(dp2421
g3
I5
sg4
I19
sg5
g169
sg7
I0
sg8
Fnan
sg10
I0
sg11
g63
sg13
I55
sg14
I82
sg15
g42
sg17
g18
(g22
S'\xdf\x07\x00\x00\x00\x00\x00\x00'
p2422
tp2423
Rp2424
sg28
I0
sg29
I6
sg30
I0
sg31
I237
ssS'Erin Kara'
p2425
(dp2426
g3
I6
sg4
I33
sg5
g1581
sg7
I0
sg8
S'University of Cambridge - 2015'
p2427
sg10
I0
sg11
g63
sg13
I63
sg14
I85
sg15
g16
sg17
g18
(g22
S'\xdf\x07\x00\x00\x00\x00\x00\x00'
p2428
tp2429
Rp2430
sg28
I0
sg29
I8
sg30
I0
sg31
I357
ssS'Greg Bryan'
p2431
(dp2432
g3
I18
sg4
I126
sg5
g69
sg7
I5
sg8
S'University of Illinois - 1996'
p2433
sg10
I1577
sg11
g12
sg13
I54
sg14
I137
sg15
g16
sg17
g18
(g22
S'\xce\x07\x00\x00\x00\x00\x00\x00'
p2434
tp2435
Rp2436
sg28
I2
sg29
I27
sg30
I0
sg31
I620
ssS'Justin Vandenbroucke'
p2437
(dp2438
g3
I7
sg4
I6
sg5
g101
sg7
I0
sg8
Fnan
sg10
I0
sg11
g12
sg13
I33
sg14
I75
sg15
g42
sg17
g18
(g22
S'\xdc\x07\x00\x00\x00\x00\x00\x00'
p2439
tp2440
Rp2441
sg28
I0
sg29
I7
sg30
I0
sg31
I71
ssS'Ming Feng Gu'
p2442
(dp2443
g3
I4
sg4
I28
sg5
g69
sg7
I4
sg8
Fnan
sg10
I1033
sg11
g12
sg13
I92
sg14
I3
sg15
g42
sg17
g18
(g22
S'\xd0\x07\x00\x00\x00\x00\x00\x00'
p2444
tp2445
Rp2446
sg28
I27
sg29
I41
sg30
I0
sg31
I1437
ssS'Jonathan R Pritchard'
p2447
(dp2448
g3
I7
sg4
I104
sg5
g112
sg7
I3
sg8
S'California Institute of Technology - 2007'
p2449
sg10
I447
sg11
g12
sg13
I37
sg14
I57
sg15
g16
sg17
g18
(g22
S'\xd7\x07\x00\x00\x00\x00\x00\x00'
p2450
tp2451
Rp2452
sg28
I2
sg29
I18
sg30
I0
sg31
I817
ssS'Christiaan Ormel'
p2453
(dp2454
g3
I10
sg4
I151
sg5
g667
sg7
I4
sg8
S'Groningen NL 2008'
p2455
sg10
I177
sg11
g12
sg13
I29
sg14
I125
sg15
g16
sg17
g18
(g22
S'\xdb\x07\x00\x00\x00\x00\x00\x00'
p2456
tp2457
Rp2458
sg28
I2
sg29
I18
sg30
I0
sg31
I1028
ssS'Guy Worthey'
p2459
(dp2460
g3
I6
sg4
I182
sg5
g1505
sg7
I1
sg8
g242
sg10
I3458
sg11
g12
sg13
I24
sg14
I28
sg15
g16
sg17
g18
(g22
S'\xca\x07\x00\x00\x00\x00\x00\x00'
p2461
tp2462
Rp2463
sg28
I12
sg29
I22
sg30
I0
sg31
I904
ssS'David Kipping'
p2464
(dp2465
g3
I10
sg4
I287
sg5
Fnan
sg7
I8
sg8
g215
sg10
I306
sg11
g12
sg13
I101
sg14
I104
sg15
g133
sg17
g18
(g22
S'\xdb\x07\x00\x00\x00\x00\x00\x00'
p2466
tp2467
Rp2468
sg28
I3
sg29
I32
sg30
I0
sg31
I1214
ssS'Jennifer Yee'
p2469
(dp2470
g3
I21
sg4
I108
sg5
Fnan
sg7
I4
sg8
g591
sg10
I0
sg11
g63
sg13
I430
sg14
I421
sg15
g133
sg17
g18
(g22
S'\xdd\x07\x00\x00\x00\x00\x00\x00'
p2471
tp2472
Rp2473
sg28
I0
sg29
I28
sg30
I0
sg31
I612
ssS'Louis E. Strigari'
p2474
(dp2475
g3
I9
sg4
I324
sg5
g41
sg7
I4
sg8
g1499
sg10
I650
sg11
g12
sg13
I43
sg14
I111
sg15
g16
sg17
g18
(g22
S'\xd8\x07\x00\x00\x00\x00\x00\x00'
p2476
tp2477
Rp2478
sg28
I3
sg29
I18
sg30
I0
sg31
I1250
ssS'Scott Sheppard'
p2479
(dp2480
g3
I6
sg4
I75
sg5
S'Carnegie Institute of Washington'
p2481
sg7
I4
sg8
S'University of Hawaii 2004'
p2482
sg10
I426
sg11
g12
sg13
I33
sg14
I77
sg15
g16
sg17
g18
(g22
S'\xd4\x07\x00\x00\x00\x00\x00\x00'
p2483
tp2484
Rp2485
sg28
I10
sg29
I24
sg30
I0
sg31
I952
ssS'Francesca DeMeo'
p2486
(dp2487
g3
I7
sg4
I189
sg5
g768
sg7
I4
sg8
S'Observatoire de Paris - 2010'
p2488
sg10
I0
sg11
g63
sg13
I54
sg14
I139
sg15
g16
sg17
g18
(g22
S'\xdd\x07\x00\x00\x00\x00\x00\x00'
p2489
tp2490
Rp2491
sg28
I0
sg29
I12
sg30
I0
sg31
I552
ssS'Rachel Osten'
p2492
(dp2493
g3
I7
sg4
I75
sg5
g761
sg7
I5
sg8
S'University of Colorado 2002'
p2494
sg10
I294
sg11
g63
sg13
I78
sg14
I92
sg15
g16
sg17
g18
(g22
S'\xd5\x07\x00\x00\x00\x00\x00\x00'
p2495
tp2496
Rp2497
sg28
I7
sg29
I21
sg30
I0
sg31
I1156
ssS'Maxwell Moe'
p2498
(dp2499
g3
I6
sg4
I19
sg5
g95
sg7
I0
sg8
Fnan
sg10
I0
sg11
g12
sg13
I12
sg14
I193
sg15
g42
sg17
g18
(g22
S'\xdf\x07\x00\x00\x00\x00\x00\x00'
p2500
tp2501
Rp2502
sg28
I0
sg29
I8
sg30
I0
sg31
I504
ssS'Stephen Mark Ammons'
p2503
(dp2504
g3
I1
sg4
I15
sg5
g95
sg7
I2
sg8
g685
sg10
I77
sg11
g12
sg13
I28
sg14
I13
sg15
g16
sg17
g18
(g22
S'\xd9\x07\x00\x00\x00\x00\x00\x00'
p2505
tp2506
Rp2507
sg28
I1
sg29
I6
sg30
I0
sg31
I335
ssS'John Tobin'
p2508
(dp2509
g3
I10
sg4
I144
sg5
g2014
sg7
I6
sg8
S'University of Michigan 2011'
p2510
sg10
I156
sg11
g12
sg13
I118
sg14
I61
sg15
g16
sg17
g18
(g22
S'\xdb\x07\x00\x00\x00\x00\x00\x00'
p2511
tp2512
Rp2513
sg28
I5
sg29
I24
sg30
I0
sg31
I1238
ssS'Jonathan McKinney'
p2514
(dp2515
g3
I7
sg4
I230
sg5
g41
sg7
I1
sg8
Fnan
sg10
I1167
sg11
g12
sg13
I15
sg14
I113
sg15
g42
sg17
g18
(g22
S'\xd7\x07\x00\x00\x00\x00\x00\x00'
p2516
tp2517
Rp2518
sg28
I6
sg29
I16
sg30
I0
sg31
I1393
ssS'Courtney Dressing'
p2519
(dp2520
g3
I3
sg4
I53
sg5
Fnan
sg7
I0
sg8
g591
sg10
I0
sg11
g63
sg13
I44
sg14
I138
sg15
g133
sg17
g18
(g22
S'\xdf\x07\x00\x00\x00\x00\x00\x00'
p2521
tp2522
Rp2523
sg28
I0
sg29
I5
sg30
I0
sg31
I355
ssS'Julia Lee'
p2524
(dp2525
g3
I93
sg4
I359
sg5
g69
sg7
I15
sg8
Fnan
sg10
I4556
sg11
g63
sg13
I888
sg14
I634
sg15
g42
sg17
g18
(g22
S'\xd2\x07\x00\x00\x00\x00\x00\x00'
p2526
tp2527
Rp2528
sg28
I200
sg29
I331
sg30
I0
sg31
I10180
ssS'James Bullock'
p2529
(dp2530
g3
I8
sg4
I416
sg5
g151
sg7
I1
sg8
S'University of California Santa Cruz 1999'
p2531
sg10
I2550
sg11
g12
sg13
I36
sg14
I180
sg15
g16
sg17
g18
(g22
S'\xd2\x07\x00\x00\x00\x00\x00\x00'
p2532
tp2533
Rp2534
sg28
I2
sg29
I14
sg30
I0
sg31
I573
ssS'Alicia M Soderberg'
p2535
(dp2536
g3
I13
sg4
I268
sg5
g228
sg7
I2
sg8
g2449
sg10
I976
sg11
g63
sg13
I306
sg14
I276
sg15
g16
sg17
g18
(g22
S'\xd7\x07\x00\x00\x00\x00\x00\x00'
p2537
tp2538
Rp2539
sg28
I1
sg29
I20
sg30
I0
sg31
I947
ssS'Jayne Birkby'
p2540
(dp2541
g3
I2
sg4
I37
sg5
Fnan
sg7
I0
sg8
S'Harvard College Observatory'
p2542
sg10
I0
sg11
g63
sg13
I62
sg14
I14
sg15
g133
sg17
g18
(g22
S'\xde\x07\x00\x00\x00\x00\x00\x00'
p2543
tp2544
Rp2545
sg28
I0
sg29
I3
sg30
I0
sg31
I266
ssS'Jimmy Irwin'
p2546
(dp2547
g3
I51
sg4
I212
sg5
g1505
sg7
I7
sg8
Fnan
sg10
I1926
sg11
g12
sg13
I270
sg14
I435
sg15
g42
sg17
g18
(g22
S'\xcf\x07\x00\x00\x00\x00\x00\x00'
p2548
tp2549
Rp2550
sg28
I35
sg29
I99
sg30
I0
sg31
I3212
ssS'Hsiang-Yi Karen Yang'
p2551
(dp2552
g3
I84
sg4
I258
sg5
g1581
sg7
I17
sg8
Fnan
sg10
I0
sg11
g63
sg13
I299
sg14
I890
sg15
g42
sg17
g18
(g22
S'\xde\x07\x00\x00\x00\x00\x00\x00'
p2553
tp2554
Rp2555
sg28
I0
sg29
I109
sg30
I0
sg31
I3347
ssS'Jason Aufdenberg'
p2556
(dp2557
g3
I777
sg4
I50
sg5
Fnan
sg7
I0
sg8
g1511
sg10
I258
sg11
g12
sg13
I902
sg14
I1850
sg15
g133
sg17
g18
(g22
S'\xd3\x07\x00\x00\x00\x00\x00\x00'
p2558
tp2559
Rp2560
sg28
I222
sg29
I1000
sg30
I0
sg31
I3157
ssS'Joseph Neilsen'
p2561
(dp2562
g3
I11
sg4
I102
sg5
g69
sg7
I1
sg8
g877
sg10
I0
sg11
g12
sg13
I52
sg14
I146
sg15
g16
sg17
g18
(g22
S'\xde\x07\x00\x00\x00\x00\x00\x00'
p2563
tp2564
Rp2565
sg28
I0
sg29
I13
sg30
I0
sg31
I599
ssS'Daniel Stark'
p2566
(dp2567
g3
I14
sg4
I304
sg5
g95
sg7
I4
sg8
g1587
sg10
I335
sg11
g12
sg13
I93
sg14
I352
sg15
g16
sg17
g18
(g22
S'\xdb\x07\x00\x00\x00\x00\x00\x00'
p2568
tp2569
Rp2570
sg28
I3
sg29
I23
sg30
I0
sg31
I1265
ssS'Anatoly Spitkovsky'
p2571
(dp2572
g3
I0
sg4
I22
sg5
g514
sg7
I1
sg8
Fnan
sg10
I889
sg11
g12
sg13
I3
sg14
I0
sg15
g42
sg17
g18
(g22
S'\xd2\x07\x00\x00\x00\x00\x00\x00'
p2573
tp2574
Rp2575
sg28
I4
sg29
I7
sg30
I0
sg31
I160
ssS'Zhaohuan Zhu'
p2576
(dp2577
g3
I74
sg4
I468
sg5
g228
sg7
I11
sg8
S'University of Michigan - 2011'
p2578
sg10
I0
sg11
g12
sg13
I175
sg14
I1182
sg15
g16
sg17
g18
(g22
S'\xdd\x07\x00\x00\x00\x00\x00\x00'
p2579
tp2580
Rp2581
sg28
I0
sg29
I89
sg30
I0
sg31
I2798
ssS'Andrew Layden'
p2582
(dp2583
g3
I7
sg4
I110
sg5
S'University of Michigan (yr 1-2) Bowling Green State University of (yr 3)'
p2584
sg7
I4
sg8
S'Yale University - 1993'
p2585
sg10
I697
sg11
g12
sg13
I37
sg14
I17
sg15
g16
sg17
g18
(g22
S'\xcc\x07\x00\x00\x00\x00\x00\x00'
p2586
tp2587
Rp2588
sg28
I7
sg29
I21
sg30
I0
sg31
I718
ssS'Ian Parrish'
p2589
(dp2590
g3
I1
sg4
I64
sg5
g514
sg7
I3
sg8
Fnan
sg10
I265
sg11
g12
sg13
I16
sg14
I5
sg15
g42
sg17
g18
(g22
S'\xd7\x07\x00\x00\x00\x00\x00\x00'
p2591
tp2592
Rp2593
sg28
I2
sg29
I11
sg30
I0
sg31
I260
ssS'Nikole Lewis'
p2594
(dp2595
g3
I5
sg4
I187
sg5
Fnan
sg7
I2
sg8
g132
sg10
I23
sg11
g12
sg13
I38
sg14
I90
sg15
g133
sg17
g18
(g22
S'\xdc\x07\x00\x00\x00\x00\x00\x00'
p2596
tp2597
Rp2598
sg28
I0
sg29
I8
sg30
I0
sg31
I290
ssS'Rafael Guzman'
p2599
(dp2600
g3
I4
sg4
I116
sg5
g6
sg7
I2
sg8
S'Durham 1994'
p2601
sg10
I409
sg11
g12
sg13
I29
sg14
I42
sg15
g16
sg17
g18
(g22
S'\xcd\x07\x00\x00\x00\x00\x00\x00'
p2602
tp2603
Rp2604
sg28
I3
sg29
I10
sg30
I0
sg31
I261
ssS'Sagi Ben-Ami'
p2605
(dp2606
g3
I1
sg4
I19
sg5
g169
sg7
I1
sg8
Fnan
sg10
I0
sg11
g12
sg13
I78
sg14
I4
sg15
g42
sg17
g18
(g22
S'\xde\x07\x00\x00\x00\x00\x00\x00'
p2607
tp2608
Rp2609
sg28
I0
sg29
I3
sg30
I0
sg31
I210
ssS'Rubens Reis'
p2610
(dp2611
g3
I12
sg4
I156
sg5
g1505
sg7
I8
sg8
Fnan
sg10
I139
sg11
g12
sg13
I79
sg14
I168
sg15
g42
sg17
g18
(g22
S'\xdb\x07\x00\x00\x00\x00\x00\x00'
p2612
tp2613
Rp2614
sg28
I0
sg29
I22
sg30
I0
sg31
I1097
ssS'Brian Metzger'
p2615
(dp2616
g3
I4
sg4
I139
sg5
g228
sg7
I5
sg8
Fnan
sg10
I1042
sg11
g12
sg13
I69
sg14
I27
sg15
g42
sg17
g18
(g22
S'\xd9\x07\x00\x00\x00\x00\x00\x00'
p2617
tp2618
Rp2619
sg28
I11
sg29
I28
sg30
I0
sg31
I2570
ssS'Mark Krumholz'
p2620
(dp2621
g3
I2
sg4
I216
sg5
g228
sg7
I10
sg8
S'University of California Berkeley - 2005'
p2622
sg10
I3866
sg11
g12
sg13
I94
sg14
I58
sg15
g16
sg17
g18
(g22
S'\xd5\x07\x00\x00\x00\x00\x00\x00'
p2623
tp2624
Rp2625
sg28
I30
sg29
I49
sg30
I0
sg31
I3840
ssS'Sean M Andrews'
p2626
(dp2627
g3
I6
sg4
I213
sg5
g169
sg7
I4
sg8
S'University of Hawaii - 2007'
p2628
sg10
I1431
sg11
g12
sg13
I84
sg14
I78
sg15
g16
sg17
g18
(g22
S'\xd7\x07\x00\x00\x00\x00\x00\x00'
p2629
tp2630
Rp2631
sg28
I9
sg29
I24
sg30
I0
sg31
I2462
ssS'Andrew Digby'
p2632
(dp2633
g3
I1
sg4
I12
sg5
Fnan
sg7
I0
sg8
S'American Museum of Natural History'
p2634
sg10
I37
sg11
g12
sg13
I19
sg14
I0
sg15
g133
sg17
g18
(g22
S'\xd3\x07\x00\x00\x00\x00\x00\x00'
p2635
tp2636
Rp2637
sg28
I0
sg29
I3
sg30
I0
sg31
I104
ssS'Edo Berger'
p2638
(dp2639
g3
I14
sg4
I432
sg5
g2481
sg7
I6
sg8
S'California Institute of Technology - 2004'
p2640
sg10
I2266
sg11
g12
sg13
I381
sg14
I252
sg15
g16
sg17
g18
(g22
S'\xd4\x07\x00\x00\x00\x00\x00\x00'
p2641
tp2642
Rp2643
sg28
I20
sg29
I48
sg30
I0
sg31
I2642
ssS'Christian Reisswig'
p2644
(dp2645
g3
I6
sg4
I90
sg5
g261
sg7
I3
sg8
Fnan
sg10
I9
sg11
g12
sg13
I32
sg14
I115
sg15
g42
sg17
g18
(g22
S'\xdc\x07\x00\x00\x00\x00\x00\x00'
p2646
tp2647
Rp2648
sg28
I0
sg29
I9
sg30
I0
sg31
I557
ssS'Ralph Schoenrich'
p2649
(dp2650
g3
I3
sg4
I332
sg5
g1267
sg7
I3
sg8
S'NPI-DE 2011'
p2651
sg10
I267
sg11
g12
sg13
I14
sg14
I78
sg15
g16
sg17
g18
(g22
S'\xdb\x07\x00\x00\x00\x00\x00\x00'
p2652
tp2653
Rp2654
sg28
I1
sg29
I10
sg30
I0
sg31
I455
ssS'Jennifer Siegal-Gaskins'
p2655
(dp2656
g3
I7
sg4
I52
sg5
g261
sg7
I0
sg8
Fnan
sg10
I30
sg11
g63
sg13
I18
sg14
I62
sg15
g42
sg17
g18
(g22
S'\xdb\x07\x00\x00\x00\x00\x00\x00'
p2657
tp2658
Rp2659
sg28
I1
sg29
I9
sg30
I0
sg31
I373
ssS'Dheeraj Pasham'
p2660
(dp2661
g3
I8
sg4
I0
sg5
Fnan
sg7
I0
sg8
Fnan
sg10
I0
sg11
g12
sg13
I31
sg14
I66
sg15
g42
sg17
g18
(g22
S'\xe0\x07\x00\x00\x00\x00\x00\x00'
p2662
tp2663
Rp2664
sg28
I0
sg29
I9
sg30
I0
sg31
I437
ssS'Ann Esin'
p2665
(dp2666
g3
I3
sg4
I186
sg5
S'CalTech'
p2667
sg7
I4
sg8
Fnan
sg10
I997
sg11
g63
sg13
I23
sg14
I20
sg15
g42
sg17
g18
(g22
S'\xce\x07\x00\x00\x00\x00\x00\x00'
p2668
tp2669
Rp2670
sg28
I0
sg29
I11
sg30
I0
sg31
I518
ssS'Yan-Fei Jiang'
p2671
(dp2672
g3
I49
sg4
I318
sg5
g169
sg7
I12
sg8
Fnan
sg10
I0
sg11
g12
sg13
I213
sg14
I348
sg15
g42
sg17
g18
(g22
S'\xdd\x07\x00\x00\x00\x00\x00\x00'
p2673
tp2674
Rp2675
sg28
I0
sg29
I70
sg30
I0
sg31
I2077
ssS'Crystal Martin'
p2676
(dp2677
g3
I34
sg4
I148
sg5
g281
sg7
I9
sg8
S'University of Arizona - 1996'
p2678
sg10
I2759
sg11
g63
sg13
I162
sg14
I291
sg15
g16
sg17
g18
(g22
S'\xcc\x07\x00\x00\x00\x00\x00\x00'
p2679
tp2680
Rp2681
sg28
I35
sg29
I84
sg30
I0
sg31
I2583
ssS'Peter McCullough'
p2682
(dp2683
g3
I1
sg4
I14
sg5
S'University of Illinois'
p2684
sg7
I3
sg8
g1844
sg10
I406
sg11
g12
sg13
I40
sg14
I0
sg15
g16
sg17
g18
(g22
S'\xc9\x07\x00\x00\x00\x00\x00\x00'
p2685
tp2686
Rp2687
sg28
I12
sg29
I18
sg30
I0
sg31
I405
ssS'Rebecca Canning'
p2688
(dp2689
g3
I6
sg4
I13
sg5
g41
sg7
I1
sg8
Fnan
sg10
I0
sg11
g63
sg13
I59
sg14
I32
sg15
g42
sg17
g18
(g22
S'\xdf\x07\x00\x00\x00\x00\x00\x00'
p2690
tp2691
Rp2692
sg28
I0
sg29
I7
sg30
I0
sg31
I507
ssS'Daniel Foreman-Mackey'
p2693
(dp2694
g3
I2
sg4
I131
sg5
Fnan
sg7
I0
sg8
g288
sg10
I0
sg11
g12
sg13
I10
sg14
I204
sg15
g133
sg17
g18
(g22
S'\xdf\x07\x00\x00\x00\x00\x00\x00'
p2695
tp2696
Rp2697
sg28
I0
sg29
I3
sg30
I0
sg31
I97
ssS'Brian Yanny'
p2698
(dp2699
g3
I2
sg4
I37
sg5
g447
sg7
I2
sg8
g35
sg10
I1369
sg11
g12
sg13
I191
sg14
I3
sg15
g16
sg17
g18
(g22
S'\xc6\x07\x00\x00\x00\x00\x00\x00'
p2700
tp2701
Rp2702
sg28
I9
sg29
I17
sg30
I0
sg31
I616
ssS'Kevin Covey'
p2703
(dp2704
g3
I8
sg4
I107
sg5
S'Cornell University'
p2705
sg7
I2
sg8
S'University of Washington 2006'
p2706
sg10
I191
sg11
g12
sg13
I90
sg14
I39
sg15
g16
sg17
g18
(g22
S'\xd9\x07\x00\x00\x00\x00\x00\x00'
p2707
tp2708
Rp2709
sg28
I0
sg29
I11
sg30
I0
sg31
I646
ssS'Ryan Keisler'
p2710
(dp2711
g3
I1
sg4
I144
sg5
g748
sg7
I1
sg8
S'University of Chicago - 2010'
p2712
sg10
I165
sg11
g12
sg13
I114
sg14
I0
sg15
g16
sg17
g18
(g22
S'\xda\x07\x00\x00\x00\x00\x00\x00'
p2713
tp2714
Rp2715
sg28
I1
sg29
I5
sg30
I0
sg31
I164
ssS'Dan Wilkins'
p2716
(dp2717
g3
I25
sg4
I0
sg5
Fnan
sg7
I0
sg8
Fnan
sg10
I0
sg11
g12
sg13
I19
sg14
I359
sg15
g42
sg17
g18
(g22
S'\xe0\x07\x00\x00\x00\x00\x00\x00'
p2718
tp2719
Rp2720
sg28
I0
sg29
I26
sg30
I0
sg31
I426
ssS'Jean-Michel Desert'
p2721
(dp2722
g3
I6
sg4
I171
sg5
Fnan
sg7
I0
sg8
g591
sg10
I18
sg11
g12
sg13
I98
sg14
I111
sg15
g133
sg17
g18
(g22
S'\xdc\x07\x00\x00\x00\x00\x00\x00'
p2723
tp2724
Rp2725
sg28
I0
sg29
I7
sg30
I0
sg31
I469
ssS'Elizabeth Barton'
p2726
(dp2727
g3
I6
sg4
I63
sg5
g95
sg7
I1
sg8
S'Harvard University - 1999'
p2728
sg10
I548
sg11
g63
sg13
I43
sg14
I32
sg15
g16
sg17
g18
(g22
S'\xd1\x07\x00\x00\x00\x00\x00\x00'
p2729
tp2730
Rp2731
sg28
I6
sg29
I16
sg30
I0
sg31
I767
ssS'Donald Garnett'
p2732
(dp2733
g3
I10
sg4
I77
sg5
g507
sg7
I4
sg8
g1779
sg10
I1768
sg11
g12
sg13
I55
sg14
I65
sg15
g16
sg17
g18
(g22
S'\xc8\x07\x00\x00\x00\x00\x00\x00'
p2734
tp2735
Rp2736
sg28
I12
sg29
I30
sg30
I0
sg31
I1356
ssS'Laura Blecha'
p2737
(dp2738
g3
I3
sg4
I53
sg5
g1581
sg7
I2
sg8
Fnan
sg10
I16
sg11
g63
sg13
I22
sg14
I73
sg15
g42
sg17
g18
(g22
S'\xdc\x07\x00\x00\x00\x00\x00\x00'
p2739
tp2740
Rp2741
sg28
I1
sg29
I7
sg30
I0
sg31
I554
ssS'Marc Kuchner'
p2742
(dp2743
g3
I3
sg4
I13
sg5
Fnan
sg7
I4
sg8
g215
sg10
I538
sg11
g12
sg13
I19
sg14
I12
sg15
g133
sg17
g18
(g22
S'\xd0\x07\x00\x00\x00\x00\x00\x00'
p2744
tp2745
Rp2746
sg28
I3
sg29
I16
sg30
I0
sg31
I439
ssS'Benjamin Shappee'
p2747
(dp2748
g3
I4
sg4
I123
sg5
g312
sg7
I0
sg8
S'Ohio State University - 2014'
p2749
sg10
I0
sg11
g12
sg13
I53
sg14
I94
sg15
g16
sg17
g18
(g22
S'\xde\x07\x00\x00\x00\x00\x00\x00'
p2750
tp2751
Rp2752
sg28
I0
sg29
I6
sg30
I0
sg31
I399
ssS'Julie Thorburn'
p2753
(dp2754
g3
I4
sg4
I83
sg5
S'University of Chicago/Yerkes Observatory'
p2755
sg7
I1
sg8
g35
sg10
I405
sg11
g63
sg13
I13
sg14
I7
sg15
g16
sg17
g18
(g22
S'\xca\x07\x00\x00\x00\x00\x00\x00'
p2756
tp2757
Rp2758
sg28
I1
sg29
I7
sg30
I0
sg31
I307
ssS'Zheng Cai'
p2759
(dp2760
g3
I15
sg4
I0
sg5
Fnan
sg7
I0
sg8
g1310
sg10
I0
sg11
g12
sg13
I79
sg14
I94
sg15
g16
sg17
g18
(g22
S'\xe0\x07\x00\x00\x00\x00\x00\x00'
p2761
tp2762
Rp2763
sg28
I0
sg29
I15
sg30
I0
sg31
I830
ssS'Joshua Carter'
p2764
(dp2765
g3
I29
sg4
I275
sg5
g169
sg7
I8
sg8
S'Massachusetts Institute of Technology - 2009'
p2766
sg10
I449
sg11
g12
sg13
I191
sg14
I139
sg15
g16
sg17
g18
(g22
S'\xda\x07\x00\x00\x00\x00\x00\x00'
p2767
tp2768
Rp2769
sg28
I3
sg29
I50
sg30
I0
sg31
I905
ssS'Yue Shen'
p2770
(dp2771
g3
I77
sg4
I711
sg5
g55
sg7
I11
sg8
S'Princeton University - 2009'
p2772
sg10
I175
sg11
g12
sg13
I337
sg14
I1069
sg15
g16
sg17
g18
(g22
S'\xdc\x07\x00\x00\x00\x00\x00\x00'
p2773
tp2774
Rp2775
sg28
I3
sg29
I104
sg30
I0
sg31
I4186
ssS'Maria Drout'
p2776
(dp2777
g3
I6
sg4
I0
sg5
Fnan
sg7
I0
sg8
Fnan
sg10
I0
sg11
g63
sg13
I82
sg14
I196
sg15
g42
sg17
g18
(g22
S'\xe0\x07\x00\x00\x00\x00\x00\x00'
p2778
tp2779
Rp2780
sg28
I0
sg29
I6
sg30
I0
sg31
I493
ssS'Niccolo Bucciantini'
p2781
(dp2782
g3
I8
sg4
I112
sg5
g667
sg7
I4
sg8
S'Universita di Firenze 2004'
p2783
sg10
I600
sg11
g12
sg13
I48
sg14
I60
sg15
g16
sg17
g18
(g22
S'\xd6\x07\x00\x00\x00\x00\x00\x00'
p2784
tp2785
Rp2786
sg28
I10
sg29
I25
sg30
I0
sg31
I1369
ssS'Dusan Keres'
p2787
(dp2788
g3
I6
sg4
I510
sg5
g667
sg7
I1
sg8
S'University of Massachusetts - 2007'
p2789
sg10
I545
sg11
g12
sg13
I18
sg14
I376
sg15
g16
sg17
g18
(g22
S'\xda\x07\x00\x00\x00\x00\x00\x00'
p2790
tp2791
Rp2792
sg28
I0
sg29
I7
sg30
I0
sg31
I485
ssS'Jeremy Heyl'
p2793
(dp2794
g3
I20
sg4
I187
sg5
g151
sg7
I6
sg8
Fnan
sg10
I807
sg11
g12
sg13
I64
sg14
I196
sg15
g42
sg17
g18
(g22
S'\xd0\x07\x00\x00\x00\x00\x00\x00'
p2795
tp2796
Rp2797
sg28
I23
sg29
I55
sg30
I0
sg31
I1383
ssS'Steven Finkelstein'
p2798
(dp2799
g3
I11
sg4
I300
sg5
S'University of Texas Austin'
p2800
sg7
I3
sg8
S'Arizona State - 2008'
p2801
sg10
I292
sg11
g12
sg13
I196
sg14
I176
sg15
g16
sg17
g18
(g22
S'\xdb\x07\x00\x00\x00\x00\x00\x00'
p2802
tp2803
Rp2804
sg28
I2
sg29
I19
sg30
I0
sg31
I1240
ssS"Evan O'Connor"
p2805
(dp2806
g3
I8
sg4
I113
sg5
S'North Carolina State University'
p2807
sg7
I1
sg8
g371
sg10
I0
sg11
g12
sg13
I15
sg14
I153
sg15
g16
sg17
g18
(g22
S'\xde\x07\x00\x00\x00\x00\x00\x00'
p2808
tp2809
Rp2810
sg28
I0
sg29
I9
sg30
I0
sg31
I445
ssS'James Steiner'
p2811
(dp2812
g3
I29
sg4
I58
sg5
g69
sg7
I1
sg8
Fnan
sg10
I0
sg11
g12
sg13
I88
sg14
I706
sg15
g42
sg17
g18
(g22
S'\xdf\x07\x00\x00\x00\x00\x00\x00'
p2813
tp2814
Rp2815
sg28
I0
sg29
I30
sg30
I0
sg31
I939
ssS'David L A Kaplan'
p2816
(dp2817
g3
I33
sg4
I281
sg5
S'Massachusetts Institute of Technology Kavli Institute'
p2818
sg7
I8
sg8
g2640
sg10
I1131
sg11
g12
sg13
I230
sg14
I746
sg15
g16
sg17
g18
(g22
S'\xd7\x07\x00\x00\x00\x00\x00\x00'
p2819
tp2820
Rp2821
sg28
I13
sg29
I58
sg30
I0
sg31
I2631
ssS'Kaitlin Kratter'
p2822
(dp2823
g3
I7
sg4
I137
sg5
g197
sg7
I1
sg8
S'University of Toronto - 2010'
p2824
sg10
I37
sg11
g63
sg13
I13
sg14
I170
sg15
g16
sg17
g18
(g22
S'\xdc\x07\x00\x00\x00\x00\x00\x00'
p2825
tp2826
Rp2827
sg28
I0
sg29
I10
sg30
I0
sg31
I435
ssS'Benjamin Maughan'
p2828
(dp2829
g3
I1
sg4
I42
sg5
g169
sg7
I2
sg8
Fnan
sg10
I513
sg11
g12
sg13
I40
sg14
I2
sg15
g42
sg17
g18
(g22
S'\xd4\x07\x00\x00\x00\x00\x00\x00'
p2830
tp2831
Rp2832
sg28
I4
sg29
I11
sg30
I0
sg31
I510
ssS'Limin Lu'
p2833
(dp2834
g3
I10
sg4
I149
sg5
g261
sg7
I5
sg8
g1433
sg10
I997
sg11
g12
sg13
I81
sg14
I73
sg15
g16
sg17
g18
(g22
S'\xca\x07\x00\x00\x00\x00\x00\x00'
p2835
tp2836
Rp2837
sg28
I12
sg29
I32
sg30
I0
sg31
I713
ssS'Frederic Rasio'
p2838
(dp2839
g3
I7
sg4
I84
sg5
g447
sg7
I3
sg8
S'Cornell University'
p2840
sg10
I1710
sg11
g12
sg13
I32
sg14
I22
sg15
g16
sg17
g18
(g22
S'\xc8\x07\x00\x00\x00\x00\x00\x00'
p2841
tp2842
Rp2843
sg28
I9
sg29
I26
sg30
I0
sg31
I832
ssS'Xin Liu'
p2844
(dp2845
g3
I142
sg4
I413
sg5
g112
sg7
I35
sg8
Fnan
sg10
I751
sg11
g63
sg13
I694
sg14
I1170
sg15
g42
sg17
g18
(g22
S'\xda\x07\x00\x00\x00\x00\x00\x00'
p2846
tp2847
Rp2848
sg28
I38
sg29
I242
sg30
I0
sg31
I6746
ssS'Jose Prieto'
p2849
(dp2850
g3
I5
sg4
I123
sg5
S'Observatories of the Carnegie Institute of Washington Pasadena'
p2851
sg7
I1
sg8
S'The Ohio State University - 2009'
p2852
sg10
I297
sg11
Fnan
sg13
I79
sg14
I67
sg15
g16
sg17
g18
(g22
S'\xd9\x07\x00\x00\x00\x00\x00\x00'
p2853
tp2854
Rp2855
sg28
I5
sg29
I15
sg30
I0
sg31
I834
ssS'Eva K. Grebel'
p2856
(dp2857
g3
I9
sg4
I118
sg5
g761
sg7
I2
sg8
S'Bonn 1995'
p2858
sg10
I814
sg11
g63
sg13
I16
sg14
I60
sg15
g16
sg17
g18
(g22
S'\xce\x07\x00\x00\x00\x00\x00\x00'
p2859
tp2860
Rp2861
sg28
I5
sg29
I18
sg30
I0
sg31
I1054
ssS'Avi Shporer'
p2862
(dp2863
g3
I10
sg4
I96
sg5
Fnan
sg7
I2
sg8
g1913
sg10
I0
sg11
g12
sg13
I105
sg14
I136
sg15
g133
sg17
g18
(g22
S'\xdd\x07\x00\x00\x00\x00\x00\x00'
p2864
tp2865
Rp2866
sg28
I0
sg29
I12
sg30
I0
sg31
I560
ssS'Leo Stein'
p2867
(dp2868
g3
I2
sg4
I26
sg5
g2705
sg7
I3
sg8
Fnan
sg10
I10
sg11
g12
sg13
I4
sg14
I27
sg15
g42
sg17
g18
(g22
S'\xdc\x07\x00\x00\x00\x00\x00\x00'
p2869
tp2870
Rp2871
sg28
I0
sg29
I5
sg30
I0
sg31
I193
ssS'Heather L. Morrison'
p2872
(dp2873
g3
I5
sg4
I53
sg5
g241
sg7
I3
sg8
g835
sg10
I728
sg11
g63
sg13
I76
sg14
I9
sg15
g16
sg17
g18
(g22
S'\xc7\x07\x00\x00\x00\x00\x00\x00'
p2874
tp2875
Rp2876
sg28
I11
sg29
I20
sg30
I0
sg31
I907
ssS'Erik Petigura'
p2877
(dp2878
g3
I4
sg4
I44
sg5
g261
sg7
I1
sg8
S'University of California Berkeley - 2015'
p2879
sg10
I0
sg11
g12
sg13
I32
sg14
I127
sg15
g16
sg17
g18
(g22
S'\xdf\x07\x00\x00\x00\x00\x00\x00'
p2880
tp2881
Rp2882
sg28
I0
sg29
I6
sg30
I0
sg31
I230
ssS'Alis Deason'
p2883
(dp2884
g3
I3
sg4
I212
sg5
g34
sg7
I7
sg8
S'University of Cambridge - 2012'
p2885
sg10
I54
sg11
g63
sg13
I63
sg14
I16
sg15
g16
sg17
g18
(g22
S'\xdc\x07\x00\x00\x00\x00\x00\x00'
p2886
tp2887
Rp2888
sg28
I0
sg29
I16
sg30
I0
sg31
I972
ssS'Karin Oberg'
p2889
(dp2890
g3
I4
sg4
I213
sg5
g169
sg7
I8
sg8
S'Leiden 2009'
p2891
sg10
I811
sg11
g63
sg13
I101
sg14
I65
sg15
g16
sg17
g18
(g22
S'\xd9\x07\x00\x00\x00\x00\x00\x00'
p2892
tp2893
Rp2894
sg28
I5
sg29
I24
sg30
I0
sg31
I1007
ssS'Seth Redfield'
p2895
(dp2896
g3
I9
sg4
I92
sg5
g81
sg7
I2
sg8
S'University of Colorado 2003'
p2897
sg10
I543
sg11
g12
sg13
I28
sg14
I102
sg15
g16
sg17
g18
(g22
S'\xd5\x07\x00\x00\x00\x00\x00\x00'
p2898
tp2899
Rp2900
sg28
I4
sg29
I18
sg30
I0
sg31
I799
ssS'Barbara Mochejska'
p2901
(dp2902
g3
I9
sg4
I70
sg5
g151
sg7
I2
sg8
S'Copernicus Center - 2002'
p2903
sg10
I251
sg11
g63
sg13
I71
sg14
I38
sg15
g16
sg17
g18
(g22
S'\xd2\x07\x00\x00\x00\x00\x00\x00'
p2904
tp2905
Rp2906
sg28
I2
sg29
I16
sg30
I0
sg31
I458
ssS'William M. Grundy'
p2907
(dp2908
g3
I5
sg4
I13
sg5
S'Lowell Observatory'
p2909
sg7
I2
sg8
S'University of Arizona - 1995'
p2910
sg10
I876
sg11
g12
sg13
I121
sg14
I21
sg15
g16
sg17
g18
(g22
S'\xcd\x07\x00\x00\x00\x00\x00\x00'
p2911
tp2912
Rp2913
sg28
I24
sg29
I34
sg30
I0
sg31
I1169
ssS'Ann Hornschemeier'
p2914
(dp2915
g3
I2
sg4
I135
sg5
g364
sg7
I3
sg8
Fnan
sg10
I233
sg11
g63
sg13
I73
sg14
I86
sg15
g42
sg17
g18
(g22
S'\xd2\x07\x00\x00\x00\x00\x00\x00'
p2916
tp2917
Rp2918
sg28
I1
sg29
I9
sg30
I0
sg31
I339
ssS'Aurora Simionescu'
p2919
(dp2920
g3
I2
sg4
I89
sg5
g41
sg7
I2
sg8
Fnan
sg10
I224
sg11
g63
sg13
I70
sg14
I13
sg15
g42
sg17
g18
(g22
S'\xd9\x07\x00\x00\x00\x00\x00\x00'
p2921
tp2922
Rp2923
sg28
I3
sg29
I11
sg30
I0
sg31
I465
ssS'Ben Montet'
p2924
(dp2925
g3
I5
sg4
I0
sg5
Fnan
sg7
I0
sg8
S'Chicago'
p2926
sg10
I0
sg11
g12
sg13
I32
sg14
I42
sg15
g133
sg17
g18
(g22
S'\xe0\x07\x00\x00\x00\x00\x00\x00'
p2927
tp2928
Rp2929
sg28
I0
sg29
I5
sg30
I0
sg31
I360
ssS'Remi Soummer'
p2930
(dp2931
g3
I0
sg4
I34
sg5
Fnan
sg7
I1
sg8
S'Space Telescope Science Institute'
p2932
sg10
I495
sg11
g12
sg13
I41
sg14
I0
sg15
g133
sg17
g18
(g22
S'\xd3\x07\x00\x00\x00\x00\x00\x00'
p2933
tp2934
Rp2935
sg28
I8
sg29
I11
sg30
I0
sg31
I425
ssS'Edward Moran'
p2936
(dp2937
g3
I8
sg4
I96
sg5
g514
sg7
I4
sg8
Fnan
sg10
I651
sg11
g12
sg13
I44
sg14
I47
sg15
g42
sg17
g18
(g22
S'\xce\x07\x00\x00\x00\x00\x00\x00'
p2938
tp2939
Rp2940
sg28
I4
sg29
I17
sg30
I0
sg31
I650
ssS'Brian Chaboyer'
p2941
(dp2942
g3
I16
sg4
I384
sg5
g95
sg7
I2
sg8
g2585
sg10
I1182
sg11
g12
sg13
I45
sg14
I122
sg15
g16
sg17
g18
(g22
S'\xcc\x07\x00\x00\x00\x00\x00\x00'
p2943
tp2944
Rp2945
sg28
I4
sg29
I29
sg30
I0
sg31
I999
ssS'Dean E. McLaughlin'
p2946
(dp2947
g3
I177
sg4
I114
sg5
g667
sg7
I5
sg8
S'McMaster 1997'
p2948
sg10
I1739
sg11
g12
sg13
I38
sg14
I533
sg15
g16
sg17
g18
(g22
S'\xcd\x07\x00\x00\x00\x00\x00\x00'
p2949
tp2950
Rp2951
sg28
I5
sg29
I190
sg30
I0
sg31
I1034
ssS'Juna Kollmeier'
p2952
(dp2953
g3
I2
sg4
I65
sg5
g55
sg7
I1
sg8
S'The Ohio State University - 2006'
p2954
sg10
I365
sg11
g63
sg13
I71
sg14
I23
sg15
g16
sg17
g18
(g22
S'\xd6\x07\x00\x00\x00\x00\x00\x00'
p2955
tp2956
Rp2957
sg28
I4
sg29
I12
sg30
I0
sg31
I483
ssS'Daniel Perley'
p2958
(dp2959
g3
I5
sg4
I160
sg5
g261
sg7
I3
sg8
S'University of California Berkeley - 2011'
p2960
sg10
I177
sg11
g12
sg13
I229
sg14
I127
sg15
g16
sg17
g18
(g22
S'\xdb\x07\x00\x00\x00\x00\x00\x00'
p2961
tp2962
Rp2963
sg28
I3
sg29
I14
sg30
I0
sg31
I1879
ssS'Henry Hsieh'
p2964
(dp2965
g3
I12
sg4
I206
sg5
g817
sg7
I6
sg8
g2628
sg10
I253
sg11
g12
sg13
I194
sg14
I144
sg15
g16
sg17
g18
(g22
S'\xda\x07\x00\x00\x00\x00\x00\x00'
p2966
tp2967
Rp2968
sg28
I6
sg29
I28
sg30
I0
sg31
I1025
ssS'Arjun Dey'
p2969
(dp2970
g3
I6
sg4
I171
sg5
S'The Johns Hopkins University (yr 1) Kitt Peak National Observatory (yr 2)'
p2971
sg7
I2
sg8
g1719
sg10
I735
sg11
g12
sg13
I61
sg14
I47
sg15
g16
sg17
g18
(g22
S'\xcd\x07\x00\x00\x00\x00\x00\x00'
p2972
tp2973
Rp2974
sg28
I8
sg29
I17
sg30
I0
sg31
I737
ssS'Michael Ireland'
p2975
(dp2976
g3
I3
sg4
I40
sg5
Fnan
sg7
I2
sg8
g591
sg10
I439
sg11
g12
sg13
I34
sg14
I2
sg15
g133
sg17
g18
(g22
S'\xd5\x07\x00\x00\x00\x00\x00\x00'
p2977
tp2978
Rp2979
sg28
I3
sg29
I12
sg30
I0
sg31
I487
ssS'Jarrod Hurley'
p2980
(dp2981
g3
I4
sg4
I173
sg5
S'American Museum of Natural History'
p2982
sg7
I2
sg8
S'Cambridge 2000'
p2983
sg10
I1619
sg11
g12
sg13
I69
sg14
I36
sg15
g16
sg17
g18
(g22
S'\xd2\x07\x00\x00\x00\x00\x00\x00'
p2984
tp2985
Rp2986
sg28
I15
sg29
I26
sg30
I0
sg31
I1141
ssS'Lisa Winter'
p2987
(dp2988
g3
I6
sg4
I135
sg5
g1907
sg7
I5
sg8
S'University of Maryland 2008'
p2989
sg10
I181
sg11
g63
sg13
I41
sg14
I65
sg15
g16
sg17
g18
(g22
S'\xd9\x07\x00\x00\x00\x00\x00\x00'
p2990
tp2991
Rp2992
sg28
I2
sg29
I16
sg30
I0
sg31
I658
ssS'Hiranya Peiris'
p2993
(dp2994
g3
I5
sg4
I341
sg5
g748
sg7
I3
sg8
g435
sg10
I749
sg11
g12
sg13
I26
sg14
I127
sg15
g16
sg17
g18
(g22
S'\xd4\x07\x00\x00\x00\x00\x00\x00'
p2995
tp2996
Rp2997
sg28
I4
sg29
I13
sg30
I0
sg31
I502
ssS'Kelsey Johnson'
p2998
(dp2999
g3
I22
sg4
I73
sg5
S'University of Wisconsin - Madison'
p3000
sg7
I5
sg8
S'University of Colorado 2001'
p3001
sg10
I464
sg11
g12
sg13
I87
sg14
I198
sg15
g16
sg17
g18
(g22
S'\xd4\x07\x00\x00\x00\x00\x00\x00'
p3002
tp3003
Rp3004
sg28
I10
sg29
I41
sg30
I0
sg31
I981
ssS'Lorenzo Sironi'
p3005
(dp3006
g3
I6
sg4
I178
sg5
g112
sg7
I4
sg8
Fnan
sg10
I274
sg11
g12
sg13
I19
sg14
I55
sg15
g42
sg17
g18
(g22
S'\xdb\x07\x00\x00\x00\x00\x00\x00'
p3007
tp3008
Rp3009
sg28
I4
sg29
I19
sg30
I0
sg31
I985
ssS'J. Christopher Clemens'
p3010
(dp3011
g3
I4
sg4
I54
sg5
S'Iowa State University'
p3012
sg7
I5
sg8
g1779
sg10
I452
sg11
g12
sg13
I42
sg14
I48
sg15
g16
sg17
g18
(g22
S'\xc9\x07\x00\x00\x00\x00\x00\x00'
p3013
tp3014
Rp3015
sg28
I5
sg29
I18
sg30
I0
sg31
I393
ssS'Philippe Fischer'
p3016
(dp3017
g3
I13
sg4
I40
sg5
g1505
sg7
I2
sg8
S'McMaster University - 1993'
p3018
sg10
I674
sg11
g12
sg13
I89
sg14
I46
sg15
g16
sg17
g18
(g22
S'\xcb\x07\x00\x00\x00\x00\x00\x00'
p3019
tp3020
Rp3021
sg28
I6
sg29
I25
sg30
I0
sg31
I694
ssS'Todd Thompson'
p3022
(dp3023
g3
I22
sg4
I117
sg5
g667
sg7
I4
sg8
S'University of Arizona - 2002'
p3024
sg10
I1790
sg11
g12
sg13
I92
sg14
I185
sg15
g16
sg17
g18
(g22
S'\xd2\x07\x00\x00\x00\x00\x00\x00'
p3025
tp3026
Rp3027
sg28
I21
sg29
I52
sg30
I0
sg31
I2018
ssS'Jo Bovy'
p3028
(dp3029
g3
I8
sg4
I355
sg5
g447
sg7
I8
sg8
S'New York University - 2011'
p3030
sg10
I482
sg11
g12
sg13
I135
sg14
I75
sg15
g16
sg17
g18
(g22
S'\xdb\x07\x00\x00\x00\x00\x00\x00'
p3031
tp3032
Rp3033
sg28
I4
sg29
I24
sg30
I0
sg31
I1486
ssS'Daniel Marrone'
p3034
(dp3035
g3
I6
sg4
I102
sg5
g748
sg7
I0
sg8
g408
sg10
I198
sg11
g12
sg13
I82
sg14
I105
sg15
g16
sg17
g18
(g22
S'\xd9\x07\x00\x00\x00\x00\x00\x00'
p3036
tp3037
Rp3038
sg28
I0
sg29
I8
sg30
I0
sg31
I372
ssS'Tim Linden'
p3039
(dp3040
g3
I8
sg4
I151
sg5
g748
sg7
I1
sg8
Fnan
sg10
I0
sg11
g12
sg13
I19
sg14
I75
sg15
g42
sg17
g18
(g22
S'\xdd\x07\x00\x00\x00\x00\x00\x00'
p3041
tp3042
Rp3043
sg28
I0
sg29
I11
sg30
I0
sg31
I532
ssS'Krzysztof Stanek'
p3044
(dp3045
g3
I12
sg4
I264
sg5
g151
sg7
I2
sg8
S'Princeton University - 1996'
p3046
sg10
I1932
sg11
g12
sg13
I106
sg14
I184
sg15
g16
sg17
g18
(g22
S'\xcf\x07\x00\x00\x00\x00\x00\x00'
p3047
tp3048
Rp3049
sg28
I4
sg29
I20
sg30
I0
sg31
I627
ssS'Joshua Winn'
p3050
(dp3051
g3
I11
sg4
I128
sg5
g768
sg7
I4
sg8
S'Massachusetts Institute of Technology - 2001'
p3052
sg10
I2031
sg11
g12
sg13
I311
sg14
I67
sg15
g16
sg17
g18
(g22
S'\xd4\x07\x00\x00\x00\x00\x00\x00'
p3053
tp3054
Rp3055
sg28
I17
sg29
I41
sg30
I0
sg31
I1677
ssS'Katherine Roth'
p3056
(dp3057
g3
I2
sg4
I29
sg5
g176
sg7
I1
sg8
S'Northwestern University - 1992'
p3058
sg10
I102
sg11
g63
sg13
I6
sg14
I6
sg15
g16
sg17
g18
(g22
S'\xcb\x07\x00\x00\x00\x00\x00\x00'
p3059
tp3060
Rp3061
sg28
I1
sg29
I7
sg30
I0
sg31
I150
ssS'Michael Muno'
p3062
(dp3063
g3
I9
sg4
I182
sg5
g1219
sg7
I7
sg8
S'Massachusetts Institute of Technology - 2003'
p3064
sg10
I1308
sg11
g12
sg13
I155
sg14
I114
sg15
g16
sg17
g18
(g22
S'\xd3\x07\x00\x00\x00\x00\x00\x00'
p3065
tp3066
Rp3067
sg28
I5
sg29
I30
sg30
I0
sg31
I1526
ssS'Jeffrey Fung'
p3068
(dp3069
g3
I7
sg4
I0
sg5
Fnan
sg7
I0
sg8
S'Berkeley'
p3070
sg10
I0
sg11
g12
sg13
I9
sg14
I64
sg15
g133
sg17
g18
(g22
S'\xe0\x07\x00\x00\x00\x00\x00\x00'
p3071
tp3072
Rp3073
sg28
I0
sg29
I7
sg30
I0
sg31
I185
ssS'Joseph Shields'
p3074
(dp3075
g3
I12
sg4
I81
sg5
S'University of Arizona/Steward Observatory'
p3076
sg7
I4
sg8
g1844
sg10
I657
sg11
g12
sg13
I53
sg14
I47
sg15
g16
sg17
g18
(g22
S'\xc9\x07\x00\x00\x00\x00\x00\x00'
p3077
tp3078
Rp3079
sg28
I6
sg29
I26
sg30
I0
sg31
I911
ssS'Caitlin Casey'
p3080
(dp3081
g3
I5
sg4
I70
sg5
g817
sg7
I6
sg8
S'University of Cambridge - 2010'
p3082
sg10
I255
sg11
g63
sg13
I158
sg14
I11
sg15
g16
sg17
g18
(g22
S'\xda\x07\x00\x00\x00\x00\x00\x00'
p3083
tp3084
Rp3085
sg28
I3
sg29
I15
sg30
I0
sg31
I1866
ssS'Christian Schwab'
p3086
(dp3087
g3
I1
sg4
I3
sg5
Fnan
sg7
I0
sg8
g9
sg10
I1
sg11
g12
sg13
I7
sg14
I0
sg15
g133
sg17
g18
(g22
S'\xdc\x07\x00\x00\x00\x00\x00\x00'
p3088
tp3089
Rp3090
sg28
I0
sg29
I2
sg30
I0
sg31
I48
ssS'Rongmon Bordoloi'
p3091
(dp3092
g3
I6
sg4
I27
sg5
g69
sg7
I1
sg8
S'ETH Zurich - 2013'
p3093
sg10
I0
sg11
g12
sg13
I133
sg14
I126
sg15
g16
sg17
g18
(g22
S'\xdf\x07\x00\x00\x00\x00\x00\x00'
p3094
tp3095
Rp3096
sg28
I0
sg29
I7
sg30
I0
sg31
I316
ssS'Konrad H. Kuijken'
p3097
(dp3098
g3
I3
sg4
I114
sg5
g151
sg7
I4
sg8
g787
sg10
I1891
sg11
g12
sg13
I48
sg14
I37
sg15
g16
sg17
g18
(g22
S'\xc7\x07\x00\x00\x00\x00\x00\x00'
p3099
tp3100
Rp3101
sg28
I12
sg29
I24
sg30
I0
sg31
I694
ssS'Shelley Wright'
p3102
(dp3103
g3
I9
sg4
I71
sg5
g667
sg7
I2
sg8
S'University of California Los Angeles 2008'
p3104
sg10
I90
sg11
g63
sg13
I36
sg14
I49
sg15
g16
sg17
g18
(g22
S'\xd9\x07\x00\x00\x00\x00\x00\x00'
p3105
tp3106
Rp3107
sg28
I0
sg29
I13
sg30
I0
sg31
I408
ssS'Christy Tremonti'
p3108
(dp3109
g3
I3
sg4
I220
sg5
g95
sg7
I1
sg8
S'The Johns Hopkins - 2003'
p3110
sg10
I1450
sg11
g63
sg13
I16
sg14
I50
sg15
g16
sg17
g18
(g22
S'\xd5\x07\x00\x00\x00\x00\x00\x00'
p3111
tp3112
Rp3113
sg28
I0
sg29
I4
sg30
I0
sg31
I196
ssS'Robert Feldmann'
p3114
(dp3115
g3
I6
sg4
I185
sg5
g667
sg7
I2
sg8
S'Eidgenossiche Technische Hochschule Zurich - 2010'
p3116
sg10
I51
sg11
g12
sg13
I51
sg14
I119
sg15
g16
sg17
g18
(g22
S'\xdc\x07\x00\x00\x00\x00\x00\x00'
p3117
tp3118
Rp3119
sg28
I1
sg29
I15
sg30
I0
sg31
I1273
ssS'Guangtun Zhu'
p3120
(dp3121
g3
I14
sg4
I74
sg5
g364
sg7
I1
sg8
g3030
sg10
I0
sg11
g12
sg13
I67
sg14
I144
sg15
g16
sg17
g18
(g22
S'\xde\x07\x00\x00\x00\x00\x00\x00'
p3122
tp3123
Rp3124
sg28
I0
sg29
I17
sg30
I0
sg31
I977
ssS'Erik Reese'
p3125
(dp3126
g3
I11
sg4
I63
sg5
g514
sg7
I1
sg8
Fnan
sg10
I211
sg11
g12
sg13
I67
sg14
I131
sg15
g42
sg17
g18
(g22
S'\xd1\x07\x00\x00\x00\x00\x00\x00'
p3127
tp3128
Rp3129
sg28
I2
sg29
I16
sg30
I0
sg31
I465
ssS'Aaron Barth'
p3130
(dp3131
g3
I10
sg4
I168
sg5
g261
sg7
I5
sg8
S'University of California Berkeley - 1998'
p3132
sg10
I1209
sg11
g12
sg13
I235
sg14
I144
sg15
g16
sg17
g18
(g22
S'\xd1\x07\x00\x00\x00\x00\x00\x00'
p3133
tp3134
Rp3135
sg28
I13
sg29
I32
sg30
I0
sg31
I1674
ss.